(lp0
I2
aI3
aI5
aI7
aI11
aI13
aI17
aI19
aI23
aI29
aI31
aI37
aI41
aI43
aI47
aI53
aI59
aI61
aI67
aI71
aI73
aI79
aI83
aI89
aI97
aI101
aI103
aI107
aI109
aI113
aI127
aI131
aI137
aI139
aI149
aI151
aI157
aI163
aI167
aI173
aI179
aI181
aI191
aI193
aI197
aI199
aI211
aI223
aI227
aI229
aI233
aI239
aI241
aI251
aI257
aI263
aI269
aI271
aI277
aI281
aI283
aI293
aI307
aI311
aI313
aI317
aI331
aI337
aI347
aI349
aI353
aI359
aI367
aI373
aI379
aI383
aI389
aI397
aI401
aI409
aI419
aI421
aI431
aI433
aI439
aI443
aI449
aI457
aI461
aI463
aI467
aI479
aI487
aI491
aI499
aI503
aI509
aI521
aI523
aI541
aI547
aI557
aI563
aI569
aI571
aI577
aI587
aI593
aI599
aI601
aI607
aI613
aI617
aI619
aI631
aI641
aI643
aI647
aI653
aI659
aI661
aI673
aI677
aI683
aI691
aI701
aI709
aI719
aI727
aI733
aI739
aI743
aI751
aI757
aI761
aI769
aI773
aI787
aI797
aI809
aI811
aI821
aI823
aI827
aI829
aI839
aI853
aI857
aI859
aI863
aI877
aI881
aI883
aI887
aI907
aI911
aI919
aI929
aI937
aI941
aI947
aI953
aI967
aI971
aI977
aI983
aI991
aI997
aI1009
aI1013
aI1019
aI1021
aI1031
aI1033
aI1039
aI1049
aI1051
aI1061
aI1063
aI1069
aI1087
aI1091
aI1093
aI1097
aI1103
aI1109
aI1117
aI1123
aI1129
aI1151
aI1153
aI1163
aI1171
aI1181
aI1187
aI1193
aI1201
aI1213
aI1217
aI1223
aI1229
aI1231
aI1237
aI1249
aI1259
aI1277
aI1279
aI1283
aI1289
aI1291
aI1297
aI1301
aI1303
aI1307
aI1319
aI1321
aI1327
aI1361
aI1367
aI1373
aI1381
aI1399
aI1409
aI1423
aI1427
aI1429
aI1433
aI1439
aI1447
aI1451
aI1453
aI1459
aI1471
aI1481
aI1483
aI1487
aI1489
aI1493
aI1499
aI1511
aI1523
aI1531
aI1543
aI1549
aI1553
aI1559
aI1567
aI1571
aI1579
aI1583
aI1597
aI1601
aI1607
aI1609
aI1613
aI1619
aI1621
aI1627
aI1637
aI1657
aI1663
aI1667
aI1669
aI1693
aI1697
aI1699
aI1709
aI1721
aI1723
aI1733
aI1741
aI1747
aI1753
aI1759
aI1777
aI1783
aI1787
aI1789
aI1801
aI1811
aI1823
aI1831
aI1847
aI1861
aI1867
aI1871
aI1873
aI1877
aI1879
aI1889
aI1901
aI1907
aI1913
aI1931
aI1933
aI1949
aI1951
aI1973
aI1979
aI1987
aI1993
aI1997
aI1999
aI2003
aI2011
aI2017
aI2027
aI2029
aI2039
aI2053
aI2063
aI2069
aI2081
aI2083
aI2087
aI2089
aI2099
aI2111
aI2113
aI2129
aI2131
aI2137
aI2141
aI2143
aI2153
aI2161
aI2179
aI2203
aI2207
aI2213
aI2221
aI2237
aI2239
aI2243
aI2251
aI2267
aI2269
aI2273
aI2281
aI2287
aI2293
aI2297
aI2309
aI2311
aI2333
aI2339
aI2341
aI2347
aI2351
aI2357
aI2371
aI2377
aI2381
aI2383
aI2389
aI2393
aI2399
aI2411
aI2417
aI2423
aI2437
aI2441
aI2447
aI2459
aI2467
aI2473
aI2477
aI2503
aI2521
aI2531
aI2539
aI2543
aI2549
aI2551
aI2557
aI2579
aI2591
aI2593
aI2609
aI2617
aI2621
aI2633
aI2647
aI2657
aI2659
aI2663
aI2671
aI2677
aI2683
aI2687
aI2689
aI2693
aI2699
aI2707
aI2711
aI2713
aI2719
aI2729
aI2731
aI2741
aI2749
aI2753
aI2767
aI2777
aI2789
aI2791
aI2797
aI2801
aI2803
aI2819
aI2833
aI2837
aI2843
aI2851
aI2857
aI2861
aI2879
aI2887
aI2897
aI2903
aI2909
aI2917
aI2927
aI2939
aI2953
aI2957
aI2963
aI2969
aI2971
aI2999
aI3001
aI3011
aI3019
aI3023
aI3037
aI3041
aI3049
aI3061
aI3067
aI3079
aI3083
aI3089
aI3109
aI3119
aI3121
aI3137
aI3163
aI3167
aI3169
aI3181
aI3187
aI3191
aI3203
aI3209
aI3217
aI3221
aI3229
aI3251
aI3253
aI3257
aI3259
aI3271
aI3299
aI3301
aI3307
aI3313
aI3319
aI3323
aI3329
aI3331
aI3343
aI3347
aI3359
aI3361
aI3371
aI3373
aI3389
aI3391
aI3407
aI3413
aI3433
aI3449
aI3457
aI3461
aI3463
aI3467
aI3469
aI3491
aI3499
aI3511
aI3517
aI3527
aI3529
aI3533
aI3539
aI3541
aI3547
aI3557
aI3559
aI3571
aI3581
aI3583
aI3593
aI3607
aI3613
aI3617
aI3623
aI3631
aI3637
aI3643
aI3659
aI3671
aI3673
aI3677
aI3691
aI3697
aI3701
aI3709
aI3719
aI3727
aI3733
aI3739
aI3761
aI3767
aI3769
aI3779
aI3793
aI3797
aI3803
aI3821
aI3823
aI3833
aI3847
aI3851
aI3853
aI3863
aI3877
aI3881
aI3889
aI3907
aI3911
aI3917
aI3919
aI3923
aI3929
aI3931
aI3943
aI3947
aI3967
aI3989
aI4001
aI4003
aI4007
aI4013
aI4019
aI4021
aI4027
aI4049
aI4051
aI4057
aI4073
aI4079
aI4091
aI4093
aI4099
aI4111
aI4127
aI4129
aI4133
aI4139
aI4153
aI4157
aI4159
aI4177
aI4201
aI4211
aI4217
aI4219
aI4229
aI4231
aI4241
aI4243
aI4253
aI4259
aI4261
aI4271
aI4273
aI4283
aI4289
aI4297
aI4327
aI4337
aI4339
aI4349
aI4357
aI4363
aI4373
aI4391
aI4397
aI4409
aI4421
aI4423
aI4441
aI4447
aI4451
aI4457
aI4463
aI4481
aI4483
aI4493
aI4507
aI4513
aI4517
aI4519
aI4523
aI4547
aI4549
aI4561
aI4567
aI4583
aI4591
aI4597
aI4603
aI4621
aI4637
aI4639
aI4643
aI4649
aI4651
aI4657
aI4663
aI4673
aI4679
aI4691
aI4703
aI4721
aI4723
aI4729
aI4733
aI4751
aI4759
aI4783
aI4787
aI4789
aI4793
aI4799
aI4801
aI4813
aI4817
aI4831
aI4861
aI4871
aI4877
aI4889
aI4903
aI4909
aI4919
aI4931
aI4933
aI4937
aI4943
aI4951
aI4957
aI4967
aI4969
aI4973
aI4987
aI4993
aI4999
aI5003
aI5009
aI5011
aI5021
aI5023
aI5039
aI5051
aI5059
aI5077
aI5081
aI5087
aI5099
aI5101
aI5107
aI5113
aI5119
aI5147
aI5153
aI5167
aI5171
aI5179
aI5189
aI5197
aI5209
aI5227
aI5231
aI5233
aI5237
aI5261
aI5273
aI5279
aI5281
aI5297
aI5303
aI5309
aI5323
aI5333
aI5347
aI5351
aI5381
aI5387
aI5393
aI5399
aI5407
aI5413
aI5417
aI5419
aI5431
aI5437
aI5441
aI5443
aI5449
aI5471
aI5477
aI5479
aI5483
aI5501
aI5503
aI5507
aI5519
aI5521
aI5527
aI5531
aI5557
aI5563
aI5569
aI5573
aI5581
aI5591
aI5623
aI5639
aI5641
aI5647
aI5651
aI5653
aI5657
aI5659
aI5669
aI5683
aI5689
aI5693
aI5701
aI5711
aI5717
aI5737
aI5741
aI5743
aI5749
aI5779
aI5783
aI5791
aI5801
aI5807
aI5813
aI5821
aI5827
aI5839
aI5843
aI5849
aI5851
aI5857
aI5861
aI5867
aI5869
aI5879
aI5881
aI5897
aI5903
aI5923
aI5927
aI5939
aI5953
aI5981
aI5987
aI6007
aI6011
aI6029
aI6037
aI6043
aI6047
aI6053
aI6067
aI6073
aI6079
aI6089
aI6091
aI6101
aI6113
aI6121
aI6131
aI6133
aI6143
aI6151
aI6163
aI6173
aI6197
aI6199
aI6203
aI6211
aI6217
aI6221
aI6229
aI6247
aI6257
aI6263
aI6269
aI6271
aI6277
aI6287
aI6299
aI6301
aI6311
aI6317
aI6323
aI6329
aI6337
aI6343
aI6353
aI6359
aI6361
aI6367
aI6373
aI6379
aI6389
aI6397
aI6421
aI6427
aI6449
aI6451
aI6469
aI6473
aI6481
aI6491
aI6521
aI6529
aI6547
aI6551
aI6553
aI6563
aI6569
aI6571
aI6577
aI6581
aI6599
aI6607
aI6619
aI6637
aI6653
aI6659
aI6661
aI6673
aI6679
aI6689
aI6691
aI6701
aI6703
aI6709
aI6719
aI6733
aI6737
aI6761
aI6763
aI6779
aI6781
aI6791
aI6793
aI6803
aI6823
aI6827
aI6829
aI6833
aI6841
aI6857
aI6863
aI6869
aI6871
aI6883
aI6899
aI6907
aI6911
aI6917
aI6947
aI6949
aI6959
aI6961
aI6967
aI6971
aI6977
aI6983
aI6991
aI6997
aI7001
aI7013
aI7019
aI7027
aI7039
aI7043
aI7057
aI7069
aI7079
aI7103
aI7109
aI7121
aI7127
aI7129
aI7151
aI7159
aI7177
aI7187
aI7193
aI7207
aI7211
aI7213
aI7219
aI7229
aI7237
aI7243
aI7247
aI7253
aI7283
aI7297
aI7307
aI7309
aI7321
aI7331
aI7333
aI7349
aI7351
aI7369
aI7393
aI7411
aI7417
aI7433
aI7451
aI7457
aI7459
aI7477
aI7481
aI7487
aI7489
aI7499
aI7507
aI7517
aI7523
aI7529
aI7537
aI7541
aI7547
aI7549
aI7559
aI7561
aI7573
aI7577
aI7583
aI7589
aI7591
aI7603
aI7607
aI7621
aI7639
aI7643
aI7649
aI7669
aI7673
aI7681
aI7687
aI7691
aI7699
aI7703
aI7717
aI7723
aI7727
aI7741
aI7753
aI7757
aI7759
aI7789
aI7793
aI7817
aI7823
aI7829
aI7841
aI7853
aI7867
aI7873
aI7877
aI7879
aI7883
aI7901
aI7907
aI7919
aI7927
aI7933
aI7937
aI7949
aI7951
aI7963
aI7993
aI8009
aI8011
aI8017
aI8039
aI8053
aI8059
aI8069
aI8081
aI8087
aI8089
aI8093
aI8101
aI8111
aI8117
aI8123
aI8147
aI8161
aI8167
aI8171
aI8179
aI8191
aI8209
aI8219
aI8221
aI8231
aI8233
aI8237
aI8243
aI8263
aI8269
aI8273
aI8287
aI8291
aI8293
aI8297
aI8311
aI8317
aI8329
aI8353
aI8363
aI8369
aI8377
aI8387
aI8389
aI8419
aI8423
aI8429
aI8431
aI8443
aI8447
aI8461
aI8467
aI8501
aI8513
aI8521
aI8527
aI8537
aI8539
aI8543
aI8563
aI8573
aI8581
aI8597
aI8599
aI8609
aI8623
aI8627
aI8629
aI8641
aI8647
aI8663
aI8669
aI8677
aI8681
aI8689
aI8693
aI8699
aI8707
aI8713
aI8719
aI8731
aI8737
aI8741
aI8747
aI8753
aI8761
aI8779
aI8783
aI8803
aI8807
aI8819
aI8821
aI8831
aI8837
aI8839
aI8849
aI8861
aI8863
aI8867
aI8887
aI8893
aI8923
aI8929
aI8933
aI8941
aI8951
aI8963
aI8969
aI8971
aI8999
aI9001
aI9007
aI9011
aI9013
aI9029
aI9041
aI9043
aI9049
aI9059
aI9067
aI9091
aI9103
aI9109
aI9127
aI9133
aI9137
aI9151
aI9157
aI9161
aI9173
aI9181
aI9187
aI9199
aI9203
aI9209
aI9221
aI9227
aI9239
aI9241
aI9257
aI9277
aI9281
aI9283
aI9293
aI9311
aI9319
aI9323
aI9337
aI9341
aI9343
aI9349
aI9371
aI9377
aI9391
aI9397
aI9403
aI9413
aI9419
aI9421
aI9431
aI9433
aI9437
aI9439
aI9461
aI9463
aI9467
aI9473
aI9479
aI9491
aI9497
aI9511
aI9521
aI9533
aI9539
aI9547
aI9551
aI9587
aI9601
aI9613
aI9619
aI9623
aI9629
aI9631
aI9643
aI9649
aI9661
aI9677
aI9679
aI9689
aI9697
aI9719
aI9721
aI9733
aI9739
aI9743
aI9749
aI9767
aI9769
aI9781
aI9787
aI9791
aI9803
aI9811
aI9817
aI9829
aI9833
aI9839
aI9851
aI9857
aI9859
aI9871
aI9883
aI9887
aI9901
aI9907
aI9923
aI9929
aI9931
aI9941
aI9949
aI9967
aI9973
a.