(lp0
I2
aI3
aI5
aI7
aI11
aI13
aI17
aI19
aI23
aI29
aI31
aI37
aI41
aI43
aI47
aI53
aI59
aI61
aI67
aI71
aI73
aI79
aI83
aI89
aI97
aI101
aI103
aI107
aI109
aI113
aI127
aI131
aI137
aI139
aI149
aI151
aI157
aI163
aI167
aI173
aI179
aI181
aI191
aI193
aI197
aI199
aI211
aI223
aI227
aI229
aI233
aI239
aI241
aI251
aI257
aI263
aI269
aI271
aI277
aI281
aI283
aI293
aI307
aI311
aI313
aI317
aI331
aI337
aI347
aI349
aI353
aI359
aI367
aI373
aI379
aI383
aI389
aI397
aI401
aI409
aI419
aI421
aI431
aI433
aI439
aI443
aI449
aI457
aI461
aI463
aI467
aI479
aI487
aI491
aI499
aI503
aI509
aI521
aI523
aI541
aI547
aI557
aI563
aI569
aI571
aI577
aI587
aI593
aI599
aI601
aI607
aI613
aI617
aI619
aI631
aI641
aI643
aI647
aI653
aI659
aI661
aI673
aI677
aI683
aI691
aI701
aI709
aI719
aI727
aI733
aI739
aI743
aI751
aI757
aI761
aI769
aI773
aI787
aI797
aI809
aI811
aI821
aI823
aI827
aI829
aI839
aI853
aI857
aI859
aI863
aI877
aI881
aI883
aI887
aI907
aI911
aI919
aI929
aI937
aI941
aI947
aI953
aI967
aI971
aI977
aI983
aI991
aI997
aI1009
aI1013
aI1019
aI1021
aI1031
aI1033
aI1039
aI1049
aI1051
aI1061
aI1063
aI1069
aI1087
aI1091
aI1093
aI1097
aI1103
aI1109
aI1117
aI1123
aI1129
aI1151
aI1153
aI1163
aI1171
aI1181
aI1187
aI1193
aI1201
aI1213
aI1217
aI1223
aI1229
aI1231
aI1237
aI1249
aI1259
aI1277
aI1279
aI1283
aI1289
aI1291
aI1297
aI1301
aI1303
aI1307
aI1319
aI1321
aI1327
aI1361
aI1367
aI1373
aI1381
aI1399
aI1409
aI1423
aI1427
aI1429
aI1433
aI1439
aI1447
aI1451
aI1453
aI1459
aI1471
aI1481
aI1483
aI1487
aI1489
aI1493
aI1499
aI1511
aI1523
aI1531
aI1543
aI1549
aI1553
aI1559
aI1567
aI1571
aI1579
aI1583
aI1597
aI1601
aI1607
aI1609
aI1613
aI1619
aI1621
aI1627
aI1637
aI1657
aI1663
aI1667
aI1669
aI1693
aI1697
aI1699
aI1709
aI1721
aI1723
aI1733
aI1741
aI1747
aI1753
aI1759
aI1777
aI1783
aI1787
aI1789
aI1801
aI1811
aI1823
aI1831
aI1847
aI1861
aI1867
aI1871
aI1873
aI1877
aI1879
aI1889
aI1901
aI1907
aI1913
aI1931
aI1933
aI1949
aI1951
aI1973
aI1979
aI1987
aI1993
aI1997
aI1999
aI2003
aI2011
aI2017
aI2027
aI2029
aI2039
aI2053
aI2063
aI2069
aI2081
aI2083
aI2087
aI2089
aI2099
aI2111
aI2113
aI2129
aI2131
aI2137
aI2141
aI2143
aI2153
aI2161
aI2179
aI2203
aI2207
aI2213
aI2221
aI2237
aI2239
aI2243
aI2251
aI2267
aI2269
aI2273
aI2281
aI2287
aI2293
aI2297
aI2309
aI2311
aI2333
aI2339
aI2341
aI2347
aI2351
aI2357
aI2371
aI2377
aI2381
aI2383
aI2389
aI2393
aI2399
aI2411
aI2417
aI2423
aI2437
aI2441
aI2447
aI2459
aI2467
aI2473
aI2477
aI2503
aI2521
aI2531
aI2539
aI2543
aI2549
aI2551
aI2557
aI2579
aI2591
aI2593
aI2609
aI2617
aI2621
aI2633
aI2647
aI2657
aI2659
aI2663
aI2671
aI2677
aI2683
aI2687
aI2689
aI2693
aI2699
aI2707
aI2711
aI2713
aI2719
aI2729
aI2731
aI2741
aI2749
aI2753
aI2767
aI2777
aI2789
aI2791
aI2797
aI2801
aI2803
aI2819
aI2833
aI2837
aI2843
aI2851
aI2857
aI2861
aI2879
aI2887
aI2897
aI2903
aI2909
aI2917
aI2927
aI2939
aI2953
aI2957
aI2963
aI2969
aI2971
aI2999
aI3001
aI3011
aI3019
aI3023
aI3037
aI3041
aI3049
aI3061
aI3067
aI3079
aI3083
aI3089
aI3109
aI3119
aI3121
aI3137
aI3163
aI3167
aI3169
aI3181
aI3187
aI3191
aI3203
aI3209
aI3217
aI3221
aI3229
aI3251
aI3253
aI3257
aI3259
aI3271
aI3299
aI3301
aI3307
aI3313
aI3319
aI3323
aI3329
aI3331
aI3343
aI3347
aI3359
aI3361
aI3371
aI3373
aI3389
aI3391
aI3407
aI3413
aI3433
aI3449
aI3457
aI3461
aI3463
aI3467
aI3469
aI3491
aI3499
aI3511
aI3517
aI3527
aI3529
aI3533
aI3539
aI3541
aI3547
aI3557
aI3559
aI3571
aI3581
aI3583
aI3593
aI3607
aI3613
aI3617
aI3623
aI3631
aI3637
aI3643
aI3659
aI3671
aI3673
aI3677
aI3691
aI3697
aI3701
aI3709
aI3719
aI3727
aI3733
aI3739
aI3761
aI3767
aI3769
aI3779
aI3793
aI3797
aI3803
aI3821
aI3823
aI3833
aI3847
aI3851
aI3853
aI3863
aI3877
aI3881
aI3889
aI3907
aI3911
aI3917
aI3919
aI3923
aI3929
aI3931
aI3943
aI3947
aI3967
aI3989
aI4001
aI4003
aI4007
aI4013
aI4019
aI4021
aI4027
aI4049
aI4051
aI4057
aI4073
aI4079
aI4091
aI4093
aI4099
aI4111
aI4127
aI4129
aI4133
aI4139
aI4153
aI4157
aI4159
aI4177
aI4201
aI4211
aI4217
aI4219
aI4229
aI4231
aI4241
aI4243
aI4253
aI4259
aI4261
aI4271
aI4273
aI4283
aI4289
aI4297
aI4327
aI4337
aI4339
aI4349
aI4357
aI4363
aI4373
aI4391
aI4397
aI4409
aI4421
aI4423
aI4441
aI4447
aI4451
aI4457
aI4463
aI4481
aI4483
aI4493
aI4507
aI4513
aI4517
aI4519
aI4523
aI4547
aI4549
aI4561
aI4567
aI4583
aI4591
aI4597
aI4603
aI4621
aI4637
aI4639
aI4643
aI4649
aI4651
aI4657
aI4663
aI4673
aI4679
aI4691
aI4703
aI4721
aI4723
aI4729
aI4733
aI4751
aI4759
aI4783
aI4787
aI4789
aI4793
aI4799
aI4801
aI4813
aI4817
aI4831
aI4861
aI4871
aI4877
aI4889
aI4903
aI4909
aI4919
aI4931
aI4933
aI4937
aI4943
aI4951
aI4957
aI4967
aI4969
aI4973
aI4987
aI4993
aI4999
aI5003
aI5009
aI5011
aI5021
aI5023
aI5039
aI5051
aI5059
aI5077
aI5081
aI5087
aI5099
aI5101
aI5107
aI5113
aI5119
aI5147
aI5153
aI5167
aI5171
aI5179
aI5189
aI5197
aI5209
aI5227
aI5231
aI5233
aI5237
aI5261
aI5273
aI5279
aI5281
aI5297
aI5303
aI5309
aI5323
aI5333
aI5347
aI5351
aI5381
aI5387
aI5393
aI5399
aI5407
aI5413
aI5417
aI5419
aI5431
aI5437
aI5441
aI5443
aI5449
aI5471
aI5477
aI5479
aI5483
aI5501
aI5503
aI5507
aI5519
aI5521
aI5527
aI5531
aI5557
aI5563
aI5569
aI5573
aI5581
aI5591
aI5623
aI5639
aI5641
aI5647
aI5651
aI5653
aI5657
aI5659
aI5669
aI5683
aI5689
aI5693
aI5701
aI5711
aI5717
aI5737
aI5741
aI5743
aI5749
aI5779
aI5783
aI5791
aI5801
aI5807
aI5813
aI5821
aI5827
aI5839
aI5843
aI5849
aI5851
aI5857
aI5861
aI5867
aI5869
aI5879
aI5881
aI5897
aI5903
aI5923
aI5927
aI5939
aI5953
aI5981
aI5987
aI6007
aI6011
aI6029
aI6037
aI6043
aI6047
aI6053
aI6067
aI6073
aI6079
aI6089
aI6091
aI6101
aI6113
aI6121
aI6131
aI6133
aI6143
aI6151
aI6163
aI6173
aI6197
aI6199
aI6203
aI6211
aI6217
aI6221
aI6229
aI6247
aI6257
aI6263
aI6269
aI6271
aI6277
aI6287
aI6299
aI6301
aI6311
aI6317
aI6323
aI6329
aI6337
aI6343
aI6353
aI6359
aI6361
aI6367
aI6373
aI6379
aI6389
aI6397
aI6421
aI6427
aI6449
aI6451
aI6469
aI6473
aI6481
aI6491
aI6521
aI6529
aI6547
aI6551
aI6553
aI6563
aI6569
aI6571
aI6577
aI6581
aI6599
aI6607
aI6619
aI6637
aI6653
aI6659
aI6661
aI6673
aI6679
aI6689
aI6691
aI6701
aI6703
aI6709
aI6719
aI6733
aI6737
aI6761
aI6763
aI6779
aI6781
aI6791
aI6793
aI6803
aI6823
aI6827
aI6829
aI6833
aI6841
aI6857
aI6863
aI6869
aI6871
aI6883
aI6899
aI6907
aI6911
aI6917
aI6947
aI6949
aI6959
aI6961
aI6967
aI6971
aI6977
aI6983
aI6991
aI6997
aI7001
aI7013
aI7019
aI7027
aI7039
aI7043
aI7057
aI7069
aI7079
aI7103
aI7109
aI7121
aI7127
aI7129
aI7151
aI7159
aI7177
aI7187
aI7193
aI7207
aI7211
aI7213
aI7219
aI7229
aI7237
aI7243
aI7247
aI7253
aI7283
aI7297
aI7307
aI7309
aI7321
aI7331
aI7333
aI7349
aI7351
aI7369
aI7393
aI7411
aI7417
aI7433
aI7451
aI7457
aI7459
aI7477
aI7481
aI7487
aI7489
aI7499
aI7507
aI7517
aI7523
aI7529
aI7537
aI7541
aI7547
aI7549
aI7559
aI7561
aI7573
aI7577
aI7583
aI7589
aI7591
aI7603
aI7607
aI7621
aI7639
aI7643
aI7649
aI7669
aI7673
aI7681
aI7687
aI7691
aI7699
aI7703
aI7717
aI7723
aI7727
aI7741
aI7753
aI7757
aI7759
aI7789
aI7793
aI7817
aI7823
aI7829
aI7841
aI7853
aI7867
aI7873
aI7877
aI7879
aI7883
aI7901
aI7907
aI7919
aI7927
aI7933
aI7937
aI7949
aI7951
aI7963
aI7993
aI8009
aI8011
aI8017
aI8039
aI8053
aI8059
aI8069
aI8081
aI8087
aI8089
aI8093
aI8101
aI8111
aI8117
aI8123
aI8147
aI8161
aI8167
aI8171
aI8179
aI8191
aI8209
aI8219
aI8221
aI8231
aI8233
aI8237
aI8243
aI8263
aI8269
aI8273
aI8287
aI8291
aI8293
aI8297
aI8311
aI8317
aI8329
aI8353
aI8363
aI8369
aI8377
aI8387
aI8389
aI8419
aI8423
aI8429
aI8431
aI8443
aI8447
aI8461
aI8467
aI8501
aI8513
aI8521
aI8527
aI8537
aI8539
aI8543
aI8563
aI8573
aI8581
aI8597
aI8599
aI8609
aI8623
aI8627
aI8629
aI8641
aI8647
aI8663
aI8669
aI8677
aI8681
aI8689
aI8693
aI8699
aI8707
aI8713
aI8719
aI8731
aI8737
aI8741
aI8747
aI8753
aI8761
aI8779
aI8783
aI8803
aI8807
aI8819
aI8821
aI8831
aI8837
aI8839
aI8849
aI8861
aI8863
aI8867
aI8887
aI8893
aI8923
aI8929
aI8933
aI8941
aI8951
aI8963
aI8969
aI8971
aI8999
aI9001
aI9007
aI9011
aI9013
aI9029
aI9041
aI9043
aI9049
aI9059
aI9067
aI9091
aI9103
aI9109
aI9127
aI9133
aI9137
aI9151
aI9157
aI9161
aI9173
aI9181
aI9187
aI9199
aI9203
aI9209
aI9221
aI9227
aI9239
aI9241
aI9257
aI9277
aI9281
aI9283
aI9293
aI9311
aI9319
aI9323
aI9337
aI9341
aI9343
aI9349
aI9371
aI9377
aI9391
aI9397
aI9403
aI9413
aI9419
aI9421
aI9431
aI9433
aI9437
aI9439
aI9461
aI9463
aI9467
aI9473
aI9479
aI9491
aI9497
aI9511
aI9521
aI9533
aI9539
aI9547
aI9551
aI9587
aI9601
aI9613
aI9619
aI9623
aI9629
aI9631
aI9643
aI9649
aI9661
aI9677
aI9679
aI9689
aI9697
aI9719
aI9721
aI9733
aI9739
aI9743
aI9749
aI9767
aI9769
aI9781
aI9787
aI9791
aI9803
aI9811
aI9817
aI9829
aI9833
aI9839
aI9851
aI9857
aI9859
aI9871
aI9883
aI9887
aI9901
aI9907
aI9923
aI9929
aI9931
aI9941
aI9949
aI9967
aI9973
aI10007
aI10009
aI10037
aI10039
aI10061
aI10067
aI10069
aI10079
aI10091
aI10093
aI10099
aI10103
aI10111
aI10133
aI10139
aI10141
aI10151
aI10159
aI10163
aI10169
aI10177
aI10181
aI10193
aI10211
aI10223
aI10243
aI10247
aI10253
aI10259
aI10267
aI10271
aI10273
aI10289
aI10301
aI10303
aI10313
aI10321
aI10331
aI10333
aI10337
aI10343
aI10357
aI10369
aI10391
aI10399
aI10427
aI10429
aI10433
aI10453
aI10457
aI10459
aI10463
aI10477
aI10487
aI10499
aI10501
aI10513
aI10529
aI10531
aI10559
aI10567
aI10589
aI10597
aI10601
aI10607
aI10613
aI10627
aI10631
aI10639
aI10651
aI10657
aI10663
aI10667
aI10687
aI10691
aI10709
aI10711
aI10723
aI10729
aI10733
aI10739
aI10753
aI10771
aI10781
aI10789
aI10799
aI10831
aI10837
aI10847
aI10853
aI10859
aI10861
aI10867
aI10883
aI10889
aI10891
aI10903
aI10909
aI10937
aI10939
aI10949
aI10957
aI10973
aI10979
aI10987
aI10993
aI11003
aI11027
aI11047
aI11057
aI11059
aI11069
aI11071
aI11083
aI11087
aI11093
aI11113
aI11117
aI11119
aI11131
aI11149
aI11159
aI11161
aI11171
aI11173
aI11177
aI11197
aI11213
aI11239
aI11243
aI11251
aI11257
aI11261
aI11273
aI11279
aI11287
aI11299
aI11311
aI11317
aI11321
aI11329
aI11351
aI11353
aI11369
aI11383
aI11393
aI11399
aI11411
aI11423
aI11437
aI11443
aI11447
aI11467
aI11471
aI11483
aI11489
aI11491
aI11497
aI11503
aI11519
aI11527
aI11549
aI11551
aI11579
aI11587
aI11593
aI11597
aI11617
aI11621
aI11633
aI11657
aI11677
aI11681
aI11689
aI11699
aI11701
aI11717
aI11719
aI11731
aI11743
aI11777
aI11779
aI11783
aI11789
aI11801
aI11807
aI11813
aI11821
aI11827
aI11831
aI11833
aI11839
aI11863
aI11867
aI11887
aI11897
aI11903
aI11909
aI11923
aI11927
aI11933
aI11939
aI11941
aI11953
aI11959
aI11969
aI11971
aI11981
aI11987
aI12007
aI12011
aI12037
aI12041
aI12043
aI12049
aI12071
aI12073
aI12097
aI12101
aI12107
aI12109
aI12113
aI12119
aI12143
aI12149
aI12157
aI12161
aI12163
aI12197
aI12203
aI12211
aI12227
aI12239
aI12241
aI12251
aI12253
aI12263
aI12269
aI12277
aI12281
aI12289
aI12301
aI12323
aI12329
aI12343
aI12347
aI12373
aI12377
aI12379
aI12391
aI12401
aI12409
aI12413
aI12421
aI12433
aI12437
aI12451
aI12457
aI12473
aI12479
aI12487
aI12491
aI12497
aI12503
aI12511
aI12517
aI12527
aI12539
aI12541
aI12547
aI12553
aI12569
aI12577
aI12583
aI12589
aI12601
aI12611
aI12613
aI12619
aI12637
aI12641
aI12647
aI12653
aI12659
aI12671
aI12689
aI12697
aI12703
aI12713
aI12721
aI12739
aI12743
aI12757
aI12763
aI12781
aI12791
aI12799
aI12809
aI12821
aI12823
aI12829
aI12841
aI12853
aI12889
aI12893
aI12899
aI12907
aI12911
aI12917
aI12919
aI12923
aI12941
aI12953
aI12959
aI12967
aI12973
aI12979
aI12983
aI13001
aI13003
aI13007
aI13009
aI13033
aI13037
aI13043
aI13049
aI13063
aI13093
aI13099
aI13103
aI13109
aI13121
aI13127
aI13147
aI13151
aI13159
aI13163
aI13171
aI13177
aI13183
aI13187
aI13217
aI13219
aI13229
aI13241
aI13249
aI13259
aI13267
aI13291
aI13297
aI13309
aI13313
aI13327
aI13331
aI13337
aI13339
aI13367
aI13381
aI13397
aI13399
aI13411
aI13417
aI13421
aI13441
aI13451
aI13457
aI13463
aI13469
aI13477
aI13487
aI13499
aI13513
aI13523
aI13537
aI13553
aI13567
aI13577
aI13591
aI13597
aI13613
aI13619
aI13627
aI13633
aI13649
aI13669
aI13679
aI13681
aI13687
aI13691
aI13693
aI13697
aI13709
aI13711
aI13721
aI13723
aI13729
aI13751
aI13757
aI13759
aI13763
aI13781
aI13789
aI13799
aI13807
aI13829
aI13831
aI13841
aI13859
aI13873
aI13877
aI13879
aI13883
aI13901
aI13903
aI13907
aI13913
aI13921
aI13931
aI13933
aI13963
aI13967
aI13997
aI13999
aI14009
aI14011
aI14029
aI14033
aI14051
aI14057
aI14071
aI14081
aI14083
aI14087
aI14107
aI14143
aI14149
aI14153
aI14159
aI14173
aI14177
aI14197
aI14207
aI14221
aI14243
aI14249
aI14251
aI14281
aI14293
aI14303
aI14321
aI14323
aI14327
aI14341
aI14347
aI14369
aI14387
aI14389
aI14401
aI14407
aI14411
aI14419
aI14423
aI14431
aI14437
aI14447
aI14449
aI14461
aI14479
aI14489
aI14503
aI14519
aI14533
aI14537
aI14543
aI14549
aI14551
aI14557
aI14561
aI14563
aI14591
aI14593
aI14621
aI14627
aI14629
aI14633
aI14639
aI14653
aI14657
aI14669
aI14683
aI14699
aI14713
aI14717
aI14723
aI14731
aI14737
aI14741
aI14747
aI14753
aI14759
aI14767
aI14771
aI14779
aI14783
aI14797
aI14813
aI14821
aI14827
aI14831
aI14843
aI14851
aI14867
aI14869
aI14879
aI14887
aI14891
aI14897
aI14923
aI14929
aI14939
aI14947
aI14951
aI14957
aI14969
aI14983
aI15013
aI15017
aI15031
aI15053
aI15061
aI15073
aI15077
aI15083
aI15091
aI15101
aI15107
aI15121
aI15131
aI15137
aI15139
aI15149
aI15161
aI15173
aI15187
aI15193
aI15199
aI15217
aI15227
aI15233
aI15241
aI15259
aI15263
aI15269
aI15271
aI15277
aI15287
aI15289
aI15299
aI15307
aI15313
aI15319
aI15329
aI15331
aI15349
aI15359
aI15361
aI15373
aI15377
aI15383
aI15391
aI15401
aI15413
aI15427
aI15439
aI15443
aI15451
aI15461
aI15467
aI15473
aI15493
aI15497
aI15511
aI15527
aI15541
aI15551
aI15559
aI15569
aI15581
aI15583
aI15601
aI15607
aI15619
aI15629
aI15641
aI15643
aI15647
aI15649
aI15661
aI15667
aI15671
aI15679
aI15683
aI15727
aI15731
aI15733
aI15737
aI15739
aI15749
aI15761
aI15767
aI15773
aI15787
aI15791
aI15797
aI15803
aI15809
aI15817
aI15823
aI15859
aI15877
aI15881
aI15887
aI15889
aI15901
aI15907
aI15913
aI15919
aI15923
aI15937
aI15959
aI15971
aI15973
aI15991
aI16001
aI16007
aI16033
aI16057
aI16061
aI16063
aI16067
aI16069
aI16073
aI16087
aI16091
aI16097
aI16103
aI16111
aI16127
aI16139
aI16141
aI16183
aI16187
aI16189
aI16193
aI16217
aI16223
aI16229
aI16231
aI16249
aI16253
aI16267
aI16273
aI16301
aI16319
aI16333
aI16339
aI16349
aI16361
aI16363
aI16369
aI16381
aI16411
aI16417
aI16421
aI16427
aI16433
aI16447
aI16451
aI16453
aI16477
aI16481
aI16487
aI16493
aI16519
aI16529
aI16547
aI16553
aI16561
aI16567
aI16573
aI16603
aI16607
aI16619
aI16631
aI16633
aI16649
aI16651
aI16657
aI16661
aI16673
aI16691
aI16693
aI16699
aI16703
aI16729
aI16741
aI16747
aI16759
aI16763
aI16787
aI16811
aI16823
aI16829
aI16831
aI16843
aI16871
aI16879
aI16883
aI16889
aI16901
aI16903
aI16921
aI16927
aI16931
aI16937
aI16943
aI16963
aI16979
aI16981
aI16987
aI16993
aI17011
aI17021
aI17027
aI17029
aI17033
aI17041
aI17047
aI17053
aI17077
aI17093
aI17099
aI17107
aI17117
aI17123
aI17137
aI17159
aI17167
aI17183
aI17189
aI17191
aI17203
aI17207
aI17209
aI17231
aI17239
aI17257
aI17291
aI17293
aI17299
aI17317
aI17321
aI17327
aI17333
aI17341
aI17351
aI17359
aI17377
aI17383
aI17387
aI17389
aI17393
aI17401
aI17417
aI17419
aI17431
aI17443
aI17449
aI17467
aI17471
aI17477
aI17483
aI17489
aI17491
aI17497
aI17509
aI17519
aI17539
aI17551
aI17569
aI17573
aI17579
aI17581
aI17597
aI17599
aI17609
aI17623
aI17627
aI17657
aI17659
aI17669
aI17681
aI17683
aI17707
aI17713
aI17729
aI17737
aI17747
aI17749
aI17761
aI17783
aI17789
aI17791
aI17807
aI17827
aI17837
aI17839
aI17851
aI17863
aI17881
aI17891
aI17903
aI17909
aI17911
aI17921
aI17923
aI17929
aI17939
aI17957
aI17959
aI17971
aI17977
aI17981
aI17987
aI17989
aI18013
aI18041
aI18043
aI18047
aI18049
aI18059
aI18061
aI18077
aI18089
aI18097
aI18119
aI18121
aI18127
aI18131
aI18133
aI18143
aI18149
aI18169
aI18181
aI18191
aI18199
aI18211
aI18217
aI18223
aI18229
aI18233
aI18251
aI18253
aI18257
aI18269
aI18287
aI18289
aI18301
aI18307
aI18311
aI18313
aI18329
aI18341
aI18353
aI18367
aI18371
aI18379
aI18397
aI18401
aI18413
aI18427
aI18433
aI18439
aI18443
aI18451
aI18457
aI18461
aI18481
aI18493
aI18503
aI18517
aI18521
aI18523
aI18539
aI18541
aI18553
aI18583
aI18587
aI18593
aI18617
aI18637
aI18661
aI18671
aI18679
aI18691
aI18701
aI18713
aI18719
aI18731
aI18743
aI18749
aI18757
aI18773
aI18787
aI18793
aI18797
aI18803
aI18839
aI18859
aI18869
aI18899
aI18911
aI18913
aI18917
aI18919
aI18947
aI18959
aI18973
aI18979
aI19001
aI19009
aI19013
aI19031
aI19037
aI19051
aI19069
aI19073
aI19079
aI19081
aI19087
aI19121
aI19139
aI19141
aI19157
aI19163
aI19181
aI19183
aI19207
aI19211
aI19213
aI19219
aI19231
aI19237
aI19249
aI19259
aI19267
aI19273
aI19289
aI19301
aI19309
aI19319
aI19333
aI19373
aI19379
aI19381
aI19387
aI19391
aI19403
aI19417
aI19421
aI19423
aI19427
aI19429
aI19433
aI19441
aI19447
aI19457
aI19463
aI19469
aI19471
aI19477
aI19483
aI19489
aI19501
aI19507
aI19531
aI19541
aI19543
aI19553
aI19559
aI19571
aI19577
aI19583
aI19597
aI19603
aI19609
aI19661
aI19681
aI19687
aI19697
aI19699
aI19709
aI19717
aI19727
aI19739
aI19751
aI19753
aI19759
aI19763
aI19777
aI19793
aI19801
aI19813
aI19819
aI19841
aI19843
aI19853
aI19861
aI19867
aI19889
aI19891
aI19913
aI19919
aI19927
aI19937
aI19949
aI19961
aI19963
aI19973
aI19979
aI19991
aI19993
aI19997
aI20011
aI20021
aI20023
aI20029
aI20047
aI20051
aI20063
aI20071
aI20089
aI20101
aI20107
aI20113
aI20117
aI20123
aI20129
aI20143
aI20147
aI20149
aI20161
aI20173
aI20177
aI20183
aI20201
aI20219
aI20231
aI20233
aI20249
aI20261
aI20269
aI20287
aI20297
aI20323
aI20327
aI20333
aI20341
aI20347
aI20353
aI20357
aI20359
aI20369
aI20389
aI20393
aI20399
aI20407
aI20411
aI20431
aI20441
aI20443
aI20477
aI20479
aI20483
aI20507
aI20509
aI20521
aI20533
aI20543
aI20549
aI20551
aI20563
aI20593
aI20599
aI20611
aI20627
aI20639
aI20641
aI20663
aI20681
aI20693
aI20707
aI20717
aI20719
aI20731
aI20743
aI20747
aI20749
aI20753
aI20759
aI20771
aI20773
aI20789
aI20807
aI20809
aI20849
aI20857
aI20873
aI20879
aI20887
aI20897
aI20899
aI20903
aI20921
aI20929
aI20939
aI20947
aI20959
aI20963
aI20981
aI20983
aI21001
aI21011
aI21013
aI21017
aI21019
aI21023
aI21031
aI21059
aI21061
aI21067
aI21089
aI21101
aI21107
aI21121
aI21139
aI21143
aI21149
aI21157
aI21163
aI21169
aI21179
aI21187
aI21191
aI21193
aI21211
aI21221
aI21227
aI21247
aI21269
aI21277
aI21283
aI21313
aI21317
aI21319
aI21323
aI21341
aI21347
aI21377
aI21379
aI21383
aI21391
aI21397
aI21401
aI21407
aI21419
aI21433
aI21467
aI21481
aI21487
aI21491
aI21493
aI21499
aI21503
aI21517
aI21521
aI21523
aI21529
aI21557
aI21559
aI21563
aI21569
aI21577
aI21587
aI21589
aI21599
aI21601
aI21611
aI21613
aI21617
aI21647
aI21649
aI21661
aI21673
aI21683
aI21701
aI21713
aI21727
aI21737
aI21739
aI21751
aI21757
aI21767
aI21773
aI21787
aI21799
aI21803
aI21817
aI21821
aI21839
aI21841
aI21851
aI21859
aI21863
aI21871
aI21881
aI21893
aI21911
aI21929
aI21937
aI21943
aI21961
aI21977
aI21991
aI21997
aI22003
aI22013
aI22027
aI22031
aI22037
aI22039
aI22051
aI22063
aI22067
aI22073
aI22079
aI22091
aI22093
aI22109
aI22111
aI22123
aI22129
aI22133
aI22147
aI22153
aI22157
aI22159
aI22171
aI22189
aI22193
aI22229
aI22247
aI22259
aI22271
aI22273
aI22277
aI22279
aI22283
aI22291
aI22303
aI22307
aI22343
aI22349
aI22367
aI22369
aI22381
aI22391
aI22397
aI22409
aI22433
aI22441
aI22447
aI22453
aI22469
aI22481
aI22483
aI22501
aI22511
aI22531
aI22541
aI22543
aI22549
aI22567
aI22571
aI22573
aI22613
aI22619
aI22621
aI22637
aI22639
aI22643
aI22651
aI22669
aI22679
aI22691
aI22697
aI22699
aI22709
aI22717
aI22721
aI22727
aI22739
aI22741
aI22751
aI22769
aI22777
aI22783
aI22787
aI22807
aI22811
aI22817
aI22853
aI22859
aI22861
aI22871
aI22877
aI22901
aI22907
aI22921
aI22937
aI22943
aI22961
aI22963
aI22973
aI22993
aI23003
aI23011
aI23017
aI23021
aI23027
aI23029
aI23039
aI23041
aI23053
aI23057
aI23059
aI23063
aI23071
aI23081
aI23087
aI23099
aI23117
aI23131
aI23143
aI23159
aI23167
aI23173
aI23189
aI23197
aI23201
aI23203
aI23209
aI23227
aI23251
aI23269
aI23279
aI23291
aI23293
aI23297
aI23311
aI23321
aI23327
aI23333
aI23339
aI23357
aI23369
aI23371
aI23399
aI23417
aI23431
aI23447
aI23459
aI23473
aI23497
aI23509
aI23531
aI23537
aI23539
aI23549
aI23557
aI23561
aI23563
aI23567
aI23581
aI23593
aI23599
aI23603
aI23609
aI23623
aI23627
aI23629
aI23633
aI23663
aI23669
aI23671
aI23677
aI23687
aI23689
aI23719
aI23741
aI23743
aI23747
aI23753
aI23761
aI23767
aI23773
aI23789
aI23801
aI23813
aI23819
aI23827
aI23831
aI23833
aI23857
aI23869
aI23873
aI23879
aI23887
aI23893
aI23899
aI23909
aI23911
aI23917
aI23929
aI23957
aI23971
aI23977
aI23981
aI23993
aI24001
aI24007
aI24019
aI24023
aI24029
aI24043
aI24049
aI24061
aI24071
aI24077
aI24083
aI24091
aI24097
aI24103
aI24107
aI24109
aI24113
aI24121
aI24133
aI24137
aI24151
aI24169
aI24179
aI24181
aI24197
aI24203
aI24223
aI24229
aI24239
aI24247
aI24251
aI24281
aI24317
aI24329
aI24337
aI24359
aI24371
aI24373
aI24379
aI24391
aI24407
aI24413
aI24419
aI24421
aI24439
aI24443
aI24469
aI24473
aI24481
aI24499
aI24509
aI24517
aI24527
aI24533
aI24547
aI24551
aI24571
aI24593
aI24611
aI24623
aI24631
aI24659
aI24671
aI24677
aI24683
aI24691
aI24697
aI24709
aI24733
aI24749
aI24763
aI24767
aI24781
aI24793
aI24799
aI24809
aI24821
aI24841
aI24847
aI24851
aI24859
aI24877
aI24889
aI24907
aI24917
aI24919
aI24923
aI24943
aI24953
aI24967
aI24971
aI24977
aI24979
aI24989
aI25013
aI25031
aI25033
aI25037
aI25057
aI25073
aI25087
aI25097
aI25111
aI25117
aI25121
aI25127
aI25147
aI25153
aI25163
aI25169
aI25171
aI25183
aI25189
aI25219
aI25229
aI25237
aI25243
aI25247
aI25253
aI25261
aI25301
aI25303
aI25307
aI25309
aI25321
aI25339
aI25343
aI25349
aI25357
aI25367
aI25373
aI25391
aI25409
aI25411
aI25423
aI25439
aI25447
aI25453
aI25457
aI25463
aI25469
aI25471
aI25523
aI25537
aI25541
aI25561
aI25577
aI25579
aI25583
aI25589
aI25601
aI25603
aI25609
aI25621
aI25633
aI25639
aI25643
aI25657
aI25667
aI25673
aI25679
aI25693
aI25703
aI25717
aI25733
aI25741
aI25747
aI25759
aI25763
aI25771
aI25793
aI25799
aI25801
aI25819
aI25841
aI25847
aI25849
aI25867
aI25873
aI25889
aI25903
aI25913
aI25919
aI25931
aI25933
aI25939
aI25943
aI25951
aI25969
aI25981
aI25997
aI25999
aI26003
aI26017
aI26021
aI26029
aI26041
aI26053
aI26083
aI26099
aI26107
aI26111
aI26113
aI26119
aI26141
aI26153
aI26161
aI26171
aI26177
aI26183
aI26189
aI26203
aI26209
aI26227
aI26237
aI26249
aI26251
aI26261
aI26263
aI26267
aI26293
aI26297
aI26309
aI26317
aI26321
aI26339
aI26347
aI26357
aI26371
aI26387
aI26393
aI26399
aI26407
aI26417
aI26423
aI26431
aI26437
aI26449
aI26459
aI26479
aI26489
aI26497
aI26501
aI26513
aI26539
aI26557
aI26561
aI26573
aI26591
aI26597
aI26627
aI26633
aI26641
aI26647
aI26669
aI26681
aI26683
aI26687
aI26693
aI26699
aI26701
aI26711
aI26713
aI26717
aI26723
aI26729
aI26731
aI26737
aI26759
aI26777
aI26783
aI26801
aI26813
aI26821
aI26833
aI26839
aI26849
aI26861
aI26863
aI26879
aI26881
aI26891
aI26893
aI26903
aI26921
aI26927
aI26947
aI26951
aI26953
aI26959
aI26981
aI26987
aI26993
aI27011
aI27017
aI27031
aI27043
aI27059
aI27061
aI27067
aI27073
aI27077
aI27091
aI27103
aI27107
aI27109
aI27127
aI27143
aI27179
aI27191
aI27197
aI27211
aI27239
aI27241
aI27253
aI27259
aI27271
aI27277
aI27281
aI27283
aI27299
aI27329
aI27337
aI27361
aI27367
aI27397
aI27407
aI27409
aI27427
aI27431
aI27437
aI27449
aI27457
aI27479
aI27481
aI27487
aI27509
aI27527
aI27529
aI27539
aI27541
aI27551
aI27581
aI27583
aI27611
aI27617
aI27631
aI27647
aI27653
aI27673
aI27689
aI27691
aI27697
aI27701
aI27733
aI27737
aI27739
aI27743
aI27749
aI27751
aI27763
aI27767
aI27773
aI27779
aI27791
aI27793
aI27799
aI27803
aI27809
aI27817
aI27823
aI27827
aI27847
aI27851
aI27883
aI27893
aI27901
aI27917
aI27919
aI27941
aI27943
aI27947
aI27953
aI27961
aI27967
aI27983
aI27997
aI28001
aI28019
aI28027
aI28031
aI28051
aI28057
aI28069
aI28081
aI28087
aI28097
aI28099
aI28109
aI28111
aI28123
aI28151
aI28163
aI28181
aI28183
aI28201
aI28211
aI28219
aI28229
aI28277
aI28279
aI28283
aI28289
aI28297
aI28307
aI28309
aI28319
aI28349
aI28351
aI28387
aI28393
aI28403
aI28409
aI28411
aI28429
aI28433
aI28439
aI28447
aI28463
aI28477
aI28493
aI28499
aI28513
aI28517
aI28537
aI28541
aI28547
aI28549
aI28559
aI28571
aI28573
aI28579
aI28591
aI28597
aI28603
aI28607
aI28619
aI28621
aI28627
aI28631
aI28643
aI28649
aI28657
aI28661
aI28663
aI28669
aI28687
aI28697
aI28703
aI28711
aI28723
aI28729
aI28751
aI28753
aI28759
aI28771
aI28789
aI28793
aI28807
aI28813
aI28817
aI28837
aI28843
aI28859
aI28867
aI28871
aI28879
aI28901
aI28909
aI28921
aI28927
aI28933
aI28949
aI28961
aI28979
aI29009
aI29017
aI29021
aI29023
aI29027
aI29033
aI29059
aI29063
aI29077
aI29101
aI29123
aI29129
aI29131
aI29137
aI29147
aI29153
aI29167
aI29173
aI29179
aI29191
aI29201
aI29207
aI29209
aI29221
aI29231
aI29243
aI29251
aI29269
aI29287
aI29297
aI29303
aI29311
aI29327
aI29333
aI29339
aI29347
aI29363
aI29383
aI29387
aI29389
aI29399
aI29401
aI29411
aI29423
aI29429
aI29437
aI29443
aI29453
aI29473
aI29483
aI29501
aI29527
aI29531
aI29537
aI29567
aI29569
aI29573
aI29581
aI29587
aI29599
aI29611
aI29629
aI29633
aI29641
aI29663
aI29669
aI29671
aI29683
aI29717
aI29723
aI29741
aI29753
aI29759
aI29761
aI29789
aI29803
aI29819
aI29833
aI29837
aI29851
aI29863
aI29867
aI29873
aI29879
aI29881
aI29917
aI29921
aI29927
aI29947
aI29959
aI29983
aI29989
aI30011
aI30013
aI30029
aI30047
aI30059
aI30071
aI30089
aI30091
aI30097
aI30103
aI30109
aI30113
aI30119
aI30133
aI30137
aI30139
aI30161
aI30169
aI30181
aI30187
aI30197
aI30203
aI30211
aI30223
aI30241
aI30253
aI30259
aI30269
aI30271
aI30293
aI30307
aI30313
aI30319
aI30323
aI30341
aI30347
aI30367
aI30389
aI30391
aI30403
aI30427
aI30431
aI30449
aI30467
aI30469
aI30491
aI30493
aI30497
aI30509
aI30517
aI30529
aI30539
aI30553
aI30557
aI30559
aI30577
aI30593
aI30631
aI30637
aI30643
aI30649
aI30661
aI30671
aI30677
aI30689
aI30697
aI30703
aI30707
aI30713
aI30727
aI30757
aI30763
aI30773
aI30781
aI30803
aI30809
aI30817
aI30829
aI30839
aI30841
aI30851
aI30853
aI30859
aI30869
aI30871
aI30881
aI30893
aI30911
aI30931
aI30937
aI30941
aI30949
aI30971
aI30977
aI30983
aI31013
aI31019
aI31033
aI31039
aI31051
aI31063
aI31069
aI31079
aI31081
aI31091
aI31121
aI31123
aI31139
aI31147
aI31151
aI31153
aI31159
aI31177
aI31181
aI31183
aI31189
aI31193
aI31219
aI31223
aI31231
aI31237
aI31247
aI31249
aI31253
aI31259
aI31267
aI31271
aI31277
aI31307
aI31319
aI31321
aI31327
aI31333
aI31337
aI31357
aI31379
aI31387
aI31391
aI31393
aI31397
aI31469
aI31477
aI31481
aI31489
aI31511
aI31513
aI31517
aI31531
aI31541
aI31543
aI31547
aI31567
aI31573
aI31583
aI31601
aI31607
aI31627
aI31643
aI31649
aI31657
aI31663
aI31667
aI31687
aI31699
aI31721
aI31723
aI31727
aI31729
aI31741
aI31751
aI31769
aI31771
aI31793
aI31799
aI31817
aI31847
aI31849
aI31859
aI31873
aI31883
aI31891
aI31907
aI31957
aI31963
aI31973
aI31981
aI31991
aI32003
aI32009
aI32027
aI32029
aI32051
aI32057
aI32059
aI32063
aI32069
aI32077
aI32083
aI32089
aI32099
aI32117
aI32119
aI32141
aI32143
aI32159
aI32173
aI32183
aI32189
aI32191
aI32203
aI32213
aI32233
aI32237
aI32251
aI32257
aI32261
aI32297
aI32299
aI32303
aI32309
aI32321
aI32323
aI32327
aI32341
aI32353
aI32359
aI32363
aI32369
aI32371
aI32377
aI32381
aI32401
aI32411
aI32413
aI32423
aI32429
aI32441
aI32443
aI32467
aI32479
aI32491
aI32497
aI32503
aI32507
aI32531
aI32533
aI32537
aI32561
aI32563
aI32569
aI32573
aI32579
aI32587
aI32603
aI32609
aI32611
aI32621
aI32633
aI32647
aI32653
aI32687
aI32693
aI32707
aI32713
aI32717
aI32719
aI32749
aI32771
aI32779
aI32783
aI32789
aI32797
aI32801
aI32803
aI32831
aI32833
aI32839
aI32843
aI32869
aI32887
aI32909
aI32911
aI32917
aI32933
aI32939
aI32941
aI32957
aI32969
aI32971
aI32983
aI32987
aI32993
aI32999
aI33013
aI33023
aI33029
aI33037
aI33049
aI33053
aI33071
aI33073
aI33083
aI33091
aI33107
aI33113
aI33119
aI33149
aI33151
aI33161
aI33179
aI33181
aI33191
aI33199
aI33203
aI33211
aI33223
aI33247
aI33287
aI33289
aI33301
aI33311
aI33317
aI33329
aI33331
aI33343
aI33347
aI33349
aI33353
aI33359
aI33377
aI33391
aI33403
aI33409
aI33413
aI33427
aI33457
aI33461
aI33469
aI33479
aI33487
aI33493
aI33503
aI33521
aI33529
aI33533
aI33547
aI33563
aI33569
aI33577
aI33581
aI33587
aI33589
aI33599
aI33601
aI33613
aI33617
aI33619
aI33623
aI33629
aI33637
aI33641
aI33647
aI33679
aI33703
aI33713
aI33721
aI33739
aI33749
aI33751
aI33757
aI33767
aI33769
aI33773
aI33791
aI33797
aI33809
aI33811
aI33827
aI33829
aI33851
aI33857
aI33863
aI33871
aI33889
aI33893
aI33911
aI33923
aI33931
aI33937
aI33941
aI33961
aI33967
aI33997
aI34019
aI34031
aI34033
aI34039
aI34057
aI34061
aI34123
aI34127
aI34129
aI34141
aI34147
aI34157
aI34159
aI34171
aI34183
aI34211
aI34213
aI34217
aI34231
aI34253
aI34259
aI34261
aI34267
aI34273
aI34283
aI34297
aI34301
aI34303
aI34313
aI34319
aI34327
aI34337
aI34351
aI34361
aI34367
aI34369
aI34381
aI34403
aI34421
aI34429
aI34439
aI34457
aI34469
aI34471
aI34483
aI34487
aI34499
aI34501
aI34511
aI34513
aI34519
aI34537
aI34543
aI34549
aI34583
aI34589
aI34591
aI34603
aI34607
aI34613
aI34631
aI34649
aI34651
aI34667
aI34673
aI34679
aI34687
aI34693
aI34703
aI34721
aI34729
aI34739
aI34747
aI34757
aI34759
aI34763
aI34781
aI34807
aI34819
aI34841
aI34843
aI34847
aI34849
aI34871
aI34877
aI34883
aI34897
aI34913
aI34919
aI34939
aI34949
aI34961
aI34963
aI34981
aI35023
aI35027
aI35051
aI35053
aI35059
aI35069
aI35081
aI35083
aI35089
aI35099
aI35107
aI35111
aI35117
aI35129
aI35141
aI35149
aI35153
aI35159
aI35171
aI35201
aI35221
aI35227
aI35251
aI35257
aI35267
aI35279
aI35281
aI35291
aI35311
aI35317
aI35323
aI35327
aI35339
aI35353
aI35363
aI35381
aI35393
aI35401
aI35407
aI35419
aI35423
aI35437
aI35447
aI35449
aI35461
aI35491
aI35507
aI35509
aI35521
aI35527
aI35531
aI35533
aI35537
aI35543
aI35569
aI35573
aI35591
aI35593
aI35597
aI35603
aI35617
aI35671
aI35677
aI35729
aI35731
aI35747
aI35753
aI35759
aI35771
aI35797
aI35801
aI35803
aI35809
aI35831
aI35837
aI35839
aI35851
aI35863
aI35869
aI35879
aI35897
aI35899
aI35911
aI35923
aI35933
aI35951
aI35963
aI35969
aI35977
aI35983
aI35993
aI35999
aI36007
aI36011
aI36013
aI36017
aI36037
aI36061
aI36067
aI36073
aI36083
aI36097
aI36107
aI36109
aI36131
aI36137
aI36151
aI36161
aI36187
aI36191
aI36209
aI36217
aI36229
aI36241
aI36251
aI36263
aI36269
aI36277
aI36293
aI36299
aI36307
aI36313
aI36319
aI36341
aI36343
aI36353
aI36373
aI36383
aI36389
aI36433
aI36451
aI36457
aI36467
aI36469
aI36473
aI36479
aI36493
aI36497
aI36523
aI36527
aI36529
aI36541
aI36551
aI36559
aI36563
aI36571
aI36583
aI36587
aI36599
aI36607
aI36629
aI36637
aI36643
aI36653
aI36671
aI36677
aI36683
aI36691
aI36697
aI36709
aI36713
aI36721
aI36739
aI36749
aI36761
aI36767
aI36779
aI36781
aI36787
aI36791
aI36793
aI36809
aI36821
aI36833
aI36847
aI36857
aI36871
aI36877
aI36887
aI36899
aI36901
aI36913
aI36919
aI36923
aI36929
aI36931
aI36943
aI36947
aI36973
aI36979
aI36997
aI37003
aI37013
aI37019
aI37021
aI37039
aI37049
aI37057
aI37061
aI37087
aI37097
aI37117
aI37123
aI37139
aI37159
aI37171
aI37181
aI37189
aI37199
aI37201
aI37217
aI37223
aI37243
aI37253
aI37273
aI37277
aI37307
aI37309
aI37313
aI37321
aI37337
aI37339
aI37357
aI37361
aI37363
aI37369
aI37379
aI37397
aI37409
aI37423
aI37441
aI37447
aI37463
aI37483
aI37489
aI37493
aI37501
aI37507
aI37511
aI37517
aI37529
aI37537
aI37547
aI37549
aI37561
aI37567
aI37571
aI37573
aI37579
aI37589
aI37591
aI37607
aI37619
aI37633
aI37643
aI37649
aI37657
aI37663
aI37691
aI37693
aI37699
aI37717
aI37747
aI37781
aI37783
aI37799
aI37811
aI37813
aI37831
aI37847
aI37853
aI37861
aI37871
aI37879
aI37889
aI37897
aI37907
aI37951
aI37957
aI37963
aI37967
aI37987
aI37991
aI37993
aI37997
aI38011
aI38039
aI38047
aI38053
aI38069
aI38083
aI38113
aI38119
aI38149
aI38153
aI38167
aI38177
aI38183
aI38189
aI38197
aI38201
aI38219
aI38231
aI38237
aI38239
aI38261
aI38273
aI38281
aI38287
aI38299
aI38303
aI38317
aI38321
aI38327
aI38329
aI38333
aI38351
aI38371
aI38377
aI38393
aI38431
aI38447
aI38449
aI38453
aI38459
aI38461
aI38501
aI38543
aI38557
aI38561
aI38567
aI38569
aI38593
aI38603
aI38609
aI38611
aI38629
aI38639
aI38651
aI38653
aI38669
aI38671
aI38677
aI38693
aI38699
aI38707
aI38711
aI38713
aI38723
aI38729
aI38737
aI38747
aI38749
aI38767
aI38783
aI38791
aI38803
aI38821
aI38833
aI38839
aI38851
aI38861
aI38867
aI38873
aI38891
aI38903
aI38917
aI38921
aI38923
aI38933
aI38953
aI38959
aI38971
aI38977
aI38993
aI39019
aI39023
aI39041
aI39043
aI39047
aI39079
aI39089
aI39097
aI39103
aI39107
aI39113
aI39119
aI39133
aI39139
aI39157
aI39161
aI39163
aI39181
aI39191
aI39199
aI39209
aI39217
aI39227
aI39229
aI39233
aI39239
aI39241
aI39251
aI39293
aI39301
aI39313
aI39317
aI39323
aI39341
aI39343
aI39359
aI39367
aI39371
aI39373
aI39383
aI39397
aI39409
aI39419
aI39439
aI39443
aI39451
aI39461
aI39499
aI39503
aI39509
aI39511
aI39521
aI39541
aI39551
aI39563
aI39569
aI39581
aI39607
aI39619
aI39623
aI39631
aI39659
aI39667
aI39671
aI39679
aI39703
aI39709
aI39719
aI39727
aI39733
aI39749
aI39761
aI39769
aI39779
aI39791
aI39799
aI39821
aI39827
aI39829
aI39839
aI39841
aI39847
aI39857
aI39863
aI39869
aI39877
aI39883
aI39887
aI39901
aI39929
aI39937
aI39953
aI39971
aI39979
aI39983
aI39989
aI40009
aI40013
aI40031
aI40037
aI40039
aI40063
aI40087
aI40093
aI40099
aI40111
aI40123
aI40127
aI40129
aI40151
aI40153
aI40163
aI40169
aI40177
aI40189
aI40193
aI40213
aI40231
aI40237
aI40241
aI40253
aI40277
aI40283
aI40289
aI40343
aI40351
aI40357
aI40361
aI40387
aI40423
aI40427
aI40429
aI40433
aI40459
aI40471
aI40483
aI40487
aI40493
aI40499
aI40507
aI40519
aI40529
aI40531
aI40543
aI40559
aI40577
aI40583
aI40591
aI40597
aI40609
aI40627
aI40637
aI40639
aI40693
aI40697
aI40699
aI40709
aI40739
aI40751
aI40759
aI40763
aI40771
aI40787
aI40801
aI40813
aI40819
aI40823
aI40829
aI40841
aI40847
aI40849
aI40853
aI40867
aI40879
aI40883
aI40897
aI40903
aI40927
aI40933
aI40939
aI40949
aI40961
aI40973
aI40993
aI41011
aI41017
aI41023
aI41039
aI41047
aI41051
aI41057
aI41077
aI41081
aI41113
aI41117
aI41131
aI41141
aI41143
aI41149
aI41161
aI41177
aI41179
aI41183
aI41189
aI41201
aI41203
aI41213
aI41221
aI41227
aI41231
aI41233
aI41243
aI41257
aI41263
aI41269
aI41281
aI41299
aI41333
aI41341
aI41351
aI41357
aI41381
aI41387
aI41389
aI41399
aI41411
aI41413
aI41443
aI41453
aI41467
aI41479
aI41491
aI41507
aI41513
aI41519
aI41521
aI41539
aI41543
aI41549
aI41579
aI41593
aI41597
aI41603
aI41609
aI41611
aI41617
aI41621
aI41627
aI41641
aI41647
aI41651
aI41659
aI41669
aI41681
aI41687
aI41719
aI41729
aI41737
aI41759
aI41761
aI41771
aI41777
aI41801
aI41809
aI41813
aI41843
aI41849
aI41851
aI41863
aI41879
aI41887
aI41893
aI41897
aI41903
aI41911
aI41927
aI41941
aI41947
aI41953
aI41957
aI41959
aI41969
aI41981
aI41983
aI41999
aI42013
aI42017
aI42019
aI42023
aI42043
aI42061
aI42071
aI42073
aI42083
aI42089
aI42101
aI42131
aI42139
aI42157
aI42169
aI42179
aI42181
aI42187
aI42193
aI42197
aI42209
aI42221
aI42223
aI42227
aI42239
aI42257
aI42281
aI42283
aI42293
aI42299
aI42307
aI42323
aI42331
aI42337
aI42349
aI42359
aI42373
aI42379
aI42391
aI42397
aI42403
aI42407
aI42409
aI42433
aI42437
aI42443
aI42451
aI42457
aI42461
aI42463
aI42467
aI42473
aI42487
aI42491
aI42499
aI42509
aI42533
aI42557
aI42569
aI42571
aI42577
aI42589
aI42611
aI42641
aI42643
aI42649
aI42667
aI42677
aI42683
aI42689
aI42697
aI42701
aI42703
aI42709
aI42719
aI42727
aI42737
aI42743
aI42751
aI42767
aI42773
aI42787
aI42793
aI42797
aI42821
aI42829
aI42839
aI42841
aI42853
aI42859
aI42863
aI42899
aI42901
aI42923
aI42929
aI42937
aI42943
aI42953
aI42961
aI42967
aI42979
aI42989
aI43003
aI43013
aI43019
aI43037
aI43049
aI43051
aI43063
aI43067
aI43093
aI43103
aI43117
aI43133
aI43151
aI43159
aI43177
aI43189
aI43201
aI43207
aI43223
aI43237
aI43261
aI43271
aI43283
aI43291
aI43313
aI43319
aI43321
aI43331
aI43391
aI43397
aI43399
aI43403
aI43411
aI43427
aI43441
aI43451
aI43457
aI43481
aI43487
aI43499
aI43517
aI43541
aI43543
aI43573
aI43577
aI43579
aI43591
aI43597
aI43607
aI43609
aI43613
aI43627
aI43633
aI43649
aI43651
aI43661
aI43669
aI43691
aI43711
aI43717
aI43721
aI43753
aI43759
aI43777
aI43781
aI43783
aI43787
aI43789
aI43793
aI43801
aI43853
aI43867
aI43889
aI43891
aI43913
aI43933
aI43943
aI43951
aI43961
aI43963
aI43969
aI43973
aI43987
aI43991
aI43997
aI44017
aI44021
aI44027
aI44029
aI44041
aI44053
aI44059
aI44071
aI44087
aI44089
aI44101
aI44111
aI44119
aI44123
aI44129
aI44131
aI44159
aI44171
aI44179
aI44189
aI44201
aI44203
aI44207
aI44221
aI44249
aI44257
aI44263
aI44267
aI44269
aI44273
aI44279
aI44281
aI44293
aI44351
aI44357
aI44371
aI44381
aI44383
aI44389
aI44417
aI44449
aI44453
aI44483
aI44491
aI44497
aI44501
aI44507
aI44519
aI44531
aI44533
aI44537
aI44543
aI44549
aI44563
aI44579
aI44587
aI44617
aI44621
aI44623
aI44633
aI44641
aI44647
aI44651
aI44657
aI44683
aI44687
aI44699
aI44701
aI44711
aI44729
aI44741
aI44753
aI44771
aI44773
aI44777
aI44789
aI44797
aI44809
aI44819
aI44839
aI44843
aI44851
aI44867
aI44879
aI44887
aI44893
aI44909
aI44917
aI44927
aI44939
aI44953
aI44959
aI44963
aI44971
aI44983
aI44987
aI45007
aI45013
aI45053
aI45061
aI45077
aI45083
aI45119
aI45121
aI45127
aI45131
aI45137
aI45139
aI45161
aI45179
aI45181
aI45191
aI45197
aI45233
aI45247
aI45259
aI45263
aI45281
aI45289
aI45293
aI45307
aI45317
aI45319
aI45329
aI45337
aI45341
aI45343
aI45361
aI45377
aI45389
aI45403
aI45413
aI45427
aI45433
aI45439
aI45481
aI45491
aI45497
aI45503
aI45523
aI45533
aI45541
aI45553
aI45557
aI45569
aI45587
aI45589
aI45599
aI45613
aI45631
aI45641
aI45659
aI45667
aI45673
aI45677
aI45691
aI45697
aI45707
aI45737
aI45751
aI45757
aI45763
aI45767
aI45779
aI45817
aI45821
aI45823
aI45827
aI45833
aI45841
aI45853
aI45863
aI45869
aI45887
aI45893
aI45943
aI45949
aI45953
aI45959
aI45971
aI45979
aI45989
aI46021
aI46027
aI46049
aI46051
aI46061
aI46073
aI46091
aI46093
aI46099
aI46103
aI46133
aI46141
aI46147
aI46153
aI46171
aI46181
aI46183
aI46187
aI46199
aI46219
aI46229
aI46237
aI46261
aI46271
aI46273
aI46279
aI46301
aI46307
aI46309
aI46327
aI46337
aI46349
aI46351
aI46381
aI46399
aI46411
aI46439
aI46441
aI46447
aI46451
aI46457
aI46471
aI46477
aI46489
aI46499
aI46507
aI46511
aI46523
aI46549
aI46559
aI46567
aI46573
aI46589
aI46591
aI46601
aI46619
aI46633
aI46639
aI46643
aI46649
aI46663
aI46679
aI46681
aI46687
aI46691
aI46703
aI46723
aI46727
aI46747
aI46751
aI46757
aI46769
aI46771
aI46807
aI46811
aI46817
aI46819
aI46829
aI46831
aI46853
aI46861
aI46867
aI46877
aI46889
aI46901
aI46919
aI46933
aI46957
aI46993
aI46997
aI47017
aI47041
aI47051
aI47057
aI47059
aI47087
aI47093
aI47111
aI47119
aI47123
aI47129
aI47137
aI47143
aI47147
aI47149
aI47161
aI47189
aI47207
aI47221
aI47237
aI47251
aI47269
aI47279
aI47287
aI47293
aI47297
aI47303
aI47309
aI47317
aI47339
aI47351
aI47353
aI47363
aI47381
aI47387
aI47389
aI47407
aI47417
aI47419
aI47431
aI47441
aI47459
aI47491
aI47497
aI47501
aI47507
aI47513
aI47521
aI47527
aI47533
aI47543
aI47563
aI47569
aI47581
aI47591
aI47599
aI47609
aI47623
aI47629
aI47639
aI47653
aI47657
aI47659
aI47681
aI47699
aI47701
aI47711
aI47713
aI47717
aI47737
aI47741
aI47743
aI47777
aI47779
aI47791
aI47797
aI47807
aI47809
aI47819
aI47837
aI47843
aI47857
aI47869
aI47881
aI47903
aI47911
aI47917
aI47933
aI47939
aI47947
aI47951
aI47963
aI47969
aI47977
aI47981
aI48017
aI48023
aI48029
aI48049
aI48073
aI48079
aI48091
aI48109
aI48119
aI48121
aI48131
aI48157
aI48163
aI48179
aI48187
aI48193
aI48197
aI48221
aI48239
aI48247
aI48259
aI48271
aI48281
aI48299
aI48311
aI48313
aI48337
aI48341
aI48353
aI48371
aI48383
aI48397
aI48407
aI48409
aI48413
aI48437
aI48449
aI48463
aI48473
aI48479
aI48481
aI48487
aI48491
aI48497
aI48523
aI48527
aI48533
aI48539
aI48541
aI48563
aI48571
aI48589
aI48593
aI48611
aI48619
aI48623
aI48647
aI48649
aI48661
aI48673
aI48677
aI48679
aI48731
aI48733
aI48751
aI48757
aI48761
aI48767
aI48779
aI48781
aI48787
aI48799
aI48809
aI48817
aI48821
aI48823
aI48847
aI48857
aI48859
aI48869
aI48871
aI48883
aI48889
aI48907
aI48947
aI48953
aI48973
aI48989
aI48991
aI49003
aI49009
aI49019
aI49031
aI49033
aI49037
aI49043
aI49057
aI49069
aI49081
aI49103
aI49109
aI49117
aI49121
aI49123
aI49139
aI49157
aI49169
aI49171
aI49177
aI49193
aI49199
aI49201
aI49207
aI49211
aI49223
aI49253
aI49261
aI49277
aI49279
aI49297
aI49307
aI49331
aI49333
aI49339
aI49363
aI49367
aI49369
aI49391
aI49393
aI49409
aI49411
aI49417
aI49429
aI49433
aI49451
aI49459
aI49463
aI49477
aI49481
aI49499
aI49523
aI49529
aI49531
aI49537
aI49547
aI49549
aI49559
aI49597
aI49603
aI49613
aI49627
aI49633
aI49639
aI49663
aI49667
aI49669
aI49681
aI49697
aI49711
aI49727
aI49739
aI49741
aI49747
aI49757
aI49783
aI49787
aI49789
aI49801
aI49807
aI49811
aI49823
aI49831
aI49843
aI49853
aI49871
aI49877
aI49891
aI49919
aI49921
aI49927
aI49937
aI49939
aI49943
aI49957
aI49991
aI49993
aI49999
aI50021
aI50023
aI50033
aI50047
aI50051
aI50053
aI50069
aI50077
aI50087
aI50093
aI50101
aI50111
aI50119
aI50123
aI50129
aI50131
aI50147
aI50153
aI50159
aI50177
aI50207
aI50221
aI50227
aI50231
aI50261
aI50263
aI50273
aI50287
aI50291
aI50311
aI50321
aI50329
aI50333
aI50341
aI50359
aI50363
aI50377
aI50383
aI50387
aI50411
aI50417
aI50423
aI50441
aI50459
aI50461
aI50497
aI50503
aI50513
aI50527
aI50539
aI50543
aI50549
aI50551
aI50581
aI50587
aI50591
aI50593
aI50599
aI50627
aI50647
aI50651
aI50671
aI50683
aI50707
aI50723
aI50741
aI50753
aI50767
aI50773
aI50777
aI50789
aI50821
aI50833
aI50839
aI50849
aI50857
aI50867
aI50873
aI50891
aI50893
aI50909
aI50923
aI50929
aI50951
aI50957
aI50969
aI50971
aI50989
aI50993
aI51001
aI51031
aI51043
aI51047
aI51059
aI51061
aI51071
aI51109
aI51131
aI51133
aI51137
aI51151
aI51157
aI51169
aI51193
aI51197
aI51199
aI51203
aI51217
aI51229
aI51239
aI51241
aI51257
aI51263
aI51283
aI51287
aI51307
aI51329
aI51341
aI51343
aI51347
aI51349
aI51361
aI51383
aI51407
aI51413
aI51419
aI51421
aI51427
aI51431
aI51437
aI51439
aI51449
aI51461
aI51473
aI51479
aI51481
aI51487
aI51503
aI51511
aI51517
aI51521
aI51539
aI51551
aI51563
aI51577
aI51581
aI51593
aI51599
aI51607
aI51613
aI51631
aI51637
aI51647
aI51659
aI51673
aI51679
aI51683
aI51691
aI51713
aI51719
aI51721
aI51749
aI51767
aI51769
aI51787
aI51797
aI51803
aI51817
aI51827
aI51829
aI51839
aI51853
aI51859
aI51869
aI51871
aI51893
aI51899
aI51907
aI51913
aI51929
aI51941
aI51949
aI51971
aI51973
aI51977
aI51991
aI52009
aI52021
aI52027
aI52051
aI52057
aI52067
aI52069
aI52081
aI52103
aI52121
aI52127
aI52147
aI52153
aI52163
aI52177
aI52181
aI52183
aI52189
aI52201
aI52223
aI52237
aI52249
aI52253
aI52259
aI52267
aI52289
aI52291
aI52301
aI52313
aI52321
aI52361
aI52363
aI52369
aI52379
aI52387
aI52391
aI52433
aI52453
aI52457
aI52489
aI52501
aI52511
aI52517
aI52529
aI52541
aI52543
aI52553
aI52561
aI52567
aI52571
aI52579
aI52583
aI52609
aI52627
aI52631
aI52639
aI52667
aI52673
aI52691
aI52697
aI52709
aI52711
aI52721
aI52727
aI52733
aI52747
aI52757
aI52769
aI52783
aI52807
aI52813
aI52817
aI52837
aI52859
aI52861
aI52879
aI52883
aI52889
aI52901
aI52903
aI52919
aI52937
aI52951
aI52957
aI52963
aI52967
aI52973
aI52981
aI52999
aI53003
aI53017
aI53047
aI53051
aI53069
aI53077
aI53087
aI53089
aI53093
aI53101
aI53113
aI53117
aI53129
aI53147
aI53149
aI53161
aI53171
aI53173
aI53189
aI53197
aI53201
aI53231
aI53233
aI53239
aI53267
aI53269
aI53279
aI53281
aI53299
aI53309
aI53323
aI53327
aI53353
aI53359
aI53377
aI53381
aI53401
aI53407
aI53411
aI53419
aI53437
aI53441
aI53453
aI53479
aI53503
aI53507
aI53527
aI53549
aI53551
aI53569
aI53591
aI53593
aI53597
aI53609
aI53611
aI53617
aI53623
aI53629
aI53633
aI53639
aI53653
aI53657
aI53681
aI53693
aI53699
aI53717
aI53719
aI53731
aI53759
aI53773
aI53777
aI53783
aI53791
aI53813
aI53819
aI53831
aI53849
aI53857
aI53861
aI53881
aI53887
aI53891
aI53897
aI53899
aI53917
aI53923
aI53927
aI53939
aI53951
aI53959
aI53987
aI53993
aI54001
aI54011
aI54013
aI54037
aI54049
aI54059
aI54083
aI54091
aI54101
aI54121
aI54133
aI54139
aI54151
aI54163
aI54167
aI54181
aI54193
aI54217
aI54251
aI54269
aI54277
aI54287
aI54293
aI54311
aI54319
aI54323
aI54331
aI54347
aI54361
aI54367
aI54371
aI54377
aI54401
aI54403
aI54409
aI54413
aI54419
aI54421
aI54437
aI54443
aI54449
aI54469
aI54493
aI54497
aI54499
aI54503
aI54517
aI54521
aI54539
aI54541
aI54547
aI54559
aI54563
aI54577
aI54581
aI54583
aI54601
aI54617
aI54623
aI54629
aI54631
aI54647
aI54667
aI54673
aI54679
aI54709
aI54713
aI54721
aI54727
aI54751
aI54767
aI54773
aI54779
aI54787
aI54799
aI54829
aI54833
aI54851
aI54869
aI54877
aI54881
aI54907
aI54917
aI54919
aI54941
aI54949
aI54959
aI54973
aI54979
aI54983
aI55001
aI55009
aI55021
aI55049
aI55051
aI55057
aI55061
aI55073
aI55079
aI55103
aI55109
aI55117
aI55127
aI55147
aI55163
aI55171
aI55201
aI55207
aI55213
aI55217
aI55219
aI55229
aI55243
aI55249
aI55259
aI55291
aI55313
aI55331
aI55333
aI55337
aI55339
aI55343
aI55351
aI55373
aI55381
aI55399
aI55411
aI55439
aI55441
aI55457
aI55469
aI55487
aI55501
aI55511
aI55529
aI55541
aI55547
aI55579
aI55589
aI55603
aI55609
aI55619
aI55621
aI55631
aI55633
aI55639
aI55661
aI55663
aI55667
aI55673
aI55681
aI55691
aI55697
aI55711
aI55717
aI55721
aI55733
aI55763
aI55787
aI55793
aI55799
aI55807
aI55813
aI55817
aI55819
aI55823
aI55829
aI55837
aI55843
aI55849
aI55871
aI55889
aI55897
aI55901
aI55903
aI55921
aI55927
aI55931
aI55933
aI55949
aI55967
aI55987
aI55997
aI56003
aI56009
aI56039
aI56041
aI56053
aI56081
aI56087
aI56093
aI56099
aI56101
aI56113
aI56123
aI56131
aI56149
aI56167
aI56171
aI56179
aI56197
aI56207
aI56209
aI56237
aI56239
aI56249
aI56263
aI56267
aI56269
aI56299
aI56311
aI56333
aI56359
aI56369
aI56377
aI56383
aI56393
aI56401
aI56417
aI56431
aI56437
aI56443
aI56453
aI56467
aI56473
aI56477
aI56479
aI56489
aI56501
aI56503
aI56509
aI56519
aI56527
aI56531
aI56533
aI56543
aI56569
aI56591
aI56597
aI56599
aI56611
aI56629
aI56633
aI56659
aI56663
aI56671
aI56681
aI56687
aI56701
aI56711
aI56713
aI56731
aI56737
aI56747
aI56767
aI56773
aI56779
aI56783
aI56807
aI56809
aI56813
aI56821
aI56827
aI56843
aI56857
aI56873
aI56891
aI56893
aI56897
aI56909
aI56911
aI56921
aI56923
aI56929
aI56941
aI56951
aI56957
aI56963
aI56983
aI56989
aI56993
aI56999
aI57037
aI57041
aI57047
aI57059
aI57073
aI57077
aI57089
aI57097
aI57107
aI57119
aI57131
aI57139
aI57143
aI57149
aI57163
aI57173
aI57179
aI57191
aI57193
aI57203
aI57221
aI57223
aI57241
aI57251
aI57259
aI57269
aI57271
aI57283
aI57287
aI57301
aI57329
aI57331
aI57347
aI57349
aI57367
aI57373
aI57383
aI57389
aI57397
aI57413
aI57427
aI57457
aI57467
aI57487
aI57493
aI57503
aI57527
aI57529
aI57557
aI57559
aI57571
aI57587
aI57593
aI57601
aI57637
aI57641
aI57649
aI57653
aI57667
aI57679
aI57689
aI57697
aI57709
aI57713
aI57719
aI57727
aI57731
aI57737
aI57751
aI57773
aI57781
aI57787
aI57791
aI57793
aI57803
aI57809
aI57829
aI57839
aI57847
aI57853
aI57859
aI57881
aI57899
aI57901
aI57917
aI57923
aI57943
aI57947
aI57973
aI57977
aI57991
aI58013
aI58027
aI58031
aI58043
aI58049
aI58057
aI58061
aI58067
aI58073
aI58099
aI58109
aI58111
aI58129
aI58147
aI58151
aI58153
aI58169
aI58171
aI58189
aI58193
aI58199
aI58207
aI58211
aI58217
aI58229
aI58231
aI58237
aI58243
aI58271
aI58309
aI58313
aI58321
aI58337
aI58363
aI58367
aI58369
aI58379
aI58391
aI58393
aI58403
aI58411
aI58417
aI58427
aI58439
aI58441
aI58451
aI58453
aI58477
aI58481
aI58511
aI58537
aI58543
aI58549
aI58567
aI58573
aI58579
aI58601
aI58603
aI58613
aI58631
aI58657
aI58661
aI58679
aI58687
aI58693
aI58699
aI58711
aI58727
aI58733
aI58741
aI58757
aI58763
aI58771
aI58787
aI58789
aI58831
aI58889
aI58897
aI58901
aI58907
aI58909
aI58913
aI58921
aI58937
aI58943
aI58963
aI58967
aI58979
aI58991
aI58997
aI59009
aI59011
aI59021
aI59023
aI59029
aI59051
aI59053
aI59063
aI59069
aI59077
aI59083
aI59093
aI59107
aI59113
aI59119
aI59123
aI59141
aI59149
aI59159
aI59167
aI59183
aI59197
aI59207
aI59209
aI59219
aI59221
aI59233
aI59239
aI59243
aI59263
aI59273
aI59281
aI59333
aI59341
aI59351
aI59357
aI59359
aI59369
aI59377
aI59387
aI59393
aI59399
aI59407
aI59417
aI59419
aI59441
aI59443
aI59447
aI59453
aI59467
aI59471
aI59473
aI59497
aI59509
aI59513
aI59539
aI59557
aI59561
aI59567
aI59581
aI59611
aI59617
aI59621
aI59627
aI59629
aI59651
aI59659
aI59663
aI59669
aI59671
aI59693
aI59699
aI59707
aI59723
aI59729
aI59743
aI59747
aI59753
aI59771
aI59779
aI59791
aI59797
aI59809
aI59833
aI59863
aI59879
aI59887
aI59921
aI59929
aI59951
aI59957
aI59971
aI59981
aI59999
aI60013
aI60017
aI60029
aI60037
aI60041
aI60077
aI60083
aI60089
aI60091
aI60101
aI60103
aI60107
aI60127
aI60133
aI60139
aI60149
aI60161
aI60167
aI60169
aI60209
aI60217
aI60223
aI60251
aI60257
aI60259
aI60271
aI60289
aI60293
aI60317
aI60331
aI60337
aI60343
aI60353
aI60373
aI60383
aI60397
aI60413
aI60427
aI60443
aI60449
aI60457
aI60493
aI60497
aI60509
aI60521
aI60527
aI60539
aI60589
aI60601
aI60607
aI60611
aI60617
aI60623
aI60631
aI60637
aI60647
aI60649
aI60659
aI60661
aI60679
aI60689
aI60703
aI60719
aI60727
aI60733
aI60737
aI60757
aI60761
aI60763
aI60773
aI60779
aI60793
aI60811
aI60821
aI60859
aI60869
aI60887
aI60889
aI60899
aI60901
aI60913
aI60917
aI60919
aI60923
aI60937
aI60943
aI60953
aI60961
aI61001
aI61007
aI61027
aI61031
aI61043
aI61051
aI61057
aI61091
aI61099
aI61121
aI61129
aI61141
aI61151
aI61153
aI61169
aI61211
aI61223
aI61231
aI61253
aI61261
aI61283
aI61291
aI61297
aI61331
aI61333
aI61339
aI61343
aI61357
aI61363
aI61379
aI61381
aI61403
aI61409
aI61417
aI61441
aI61463
aI61469
aI61471
aI61483
aI61487
aI61493
aI61507
aI61511
aI61519
aI61543
aI61547
aI61553
aI61559
aI61561
aI61583
aI61603
aI61609
aI61613
aI61627
aI61631
aI61637
aI61643
aI61651
aI61657
aI61667
aI61673
aI61681
aI61687
aI61703
aI61717
aI61723
aI61729
aI61751
aI61757
aI61781
aI61813
aI61819
aI61837
aI61843
aI61861
aI61871
aI61879
aI61909
aI61927
aI61933
aI61949
aI61961
aI61967
aI61979
aI61981
aI61987
aI61991
aI62003
aI62011
aI62017
aI62039
aI62047
aI62053
aI62057
aI62071
aI62081
aI62099
aI62119
aI62129
aI62131
aI62137
aI62141
aI62143
aI62171
aI62189
aI62191
aI62201
aI62207
aI62213
aI62219
aI62233
aI62273
aI62297
aI62299
aI62303
aI62311
aI62323
aI62327
aI62347
aI62351
aI62383
aI62401
aI62417
aI62423
aI62459
aI62467
aI62473
aI62477
aI62483
aI62497
aI62501
aI62507
aI62533
aI62539
aI62549
aI62563
aI62581
aI62591
aI62597
aI62603
aI62617
aI62627
aI62633
aI62639
aI62653
aI62659
aI62683
aI62687
aI62701
aI62723
aI62731
aI62743
aI62753
aI62761
aI62773
aI62791
aI62801
aI62819
aI62827
aI62851
aI62861
aI62869
aI62873
aI62897
aI62903
aI62921
aI62927
aI62929
aI62939
aI62969
aI62971
aI62981
aI62983
aI62987
aI62989
aI63029
aI63031
aI63059
aI63067
aI63073
aI63079
aI63097
aI63103
aI63113
aI63127
aI63131
aI63149
aI63179
aI63197
aI63199
aI63211
aI63241
aI63247
aI63277
aI63281
aI63299
aI63311
aI63313
aI63317
aI63331
aI63337
aI63347
aI63353
aI63361
aI63367
aI63377
aI63389
aI63391
aI63397
aI63409
aI63419
aI63421
aI63439
aI63443
aI63463
aI63467
aI63473
aI63487
aI63493
aI63499
aI63521
aI63527
aI63533
aI63541
aI63559
aI63577
aI63587
aI63589
aI63599
aI63601
aI63607
aI63611
aI63617
aI63629
aI63647
aI63649
aI63659
aI63667
aI63671
aI63689
aI63691
aI63697
aI63703
aI63709
aI63719
aI63727
aI63737
aI63743
aI63761
aI63773
aI63781
aI63793
aI63799
aI63803
aI63809
aI63823
aI63839
aI63841
aI63853
aI63857
aI63863
aI63901
aI63907
aI63913
aI63929
aI63949
aI63977
aI63997
aI64007
aI64013
aI64019
aI64033
aI64037
aI64063
aI64067
aI64081
aI64091
aI64109
aI64123
aI64151
aI64153
aI64157
aI64171
aI64187
aI64189
aI64217
aI64223
aI64231
aI64237
aI64271
aI64279
aI64283
aI64301
aI64303
aI64319
aI64327
aI64333
aI64373
aI64381
aI64399
aI64403
aI64433
aI64439
aI64451
aI64453
aI64483
aI64489
aI64499
aI64513
aI64553
aI64567
aI64577
aI64579
aI64591
aI64601
aI64609
aI64613
aI64621
aI64627
aI64633
aI64661
aI64663
aI64667
aI64679
aI64693
aI64709
aI64717
aI64747
aI64763
aI64781
aI64783
aI64793
aI64811
aI64817
aI64849
aI64853
aI64871
aI64877
aI64879
aI64891
aI64901
aI64919
aI64921
aI64927
aI64937
aI64951
aI64969
aI64997
aI65003
aI65011
aI65027
aI65029
aI65033
aI65053
aI65063
aI65071
aI65089
aI65099
aI65101
aI65111
aI65119
aI65123
aI65129
aI65141
aI65147
aI65167
aI65171
aI65173
aI65179
aI65183
aI65203
aI65213
aI65239
aI65257
aI65267
aI65269
aI65287
aI65293
aI65309
aI65323
aI65327
aI65353
aI65357
aI65371
aI65381
aI65393
aI65407
aI65413
aI65419
aI65423
aI65437
aI65447
aI65449
aI65479
aI65497
aI65519
aI65521
aI65537
aI65539
aI65543
aI65551
aI65557
aI65563
aI65579
aI65581
aI65587
aI65599
aI65609
aI65617
aI65629
aI65633
aI65647
aI65651
aI65657
aI65677
aI65687
aI65699
aI65701
aI65707
aI65713
aI65717
aI65719
aI65729
aI65731
aI65761
aI65777
aI65789
aI65809
aI65827
aI65831
aI65837
aI65839
aI65843
aI65851
aI65867
aI65881
aI65899
aI65921
aI65927
aI65929
aI65951
aI65957
aI65963
aI65981
aI65983
aI65993
aI66029
aI66037
aI66041
aI66047
aI66067
aI66071
aI66083
aI66089
aI66103
aI66107
aI66109
aI66137
aI66161
aI66169
aI66173
aI66179
aI66191
aI66221
aI66239
aI66271
aI66293
aI66301
aI66337
aI66343
aI66347
aI66359
aI66361
aI66373
aI66377
aI66383
aI66403
aI66413
aI66431
aI66449
aI66457
aI66463
aI66467
aI66491
aI66499
aI66509
aI66523
aI66529
aI66533
aI66541
aI66553
aI66569
aI66571
aI66587
aI66593
aI66601
aI66617
aI66629
aI66643
aI66653
aI66683
aI66697
aI66701
aI66713
aI66721
aI66733
aI66739
aI66749
aI66751
aI66763
aI66791
aI66797
aI66809
aI66821
aI66841
aI66851
aI66853
aI66863
aI66877
aI66883
aI66889
aI66919
aI66923
aI66931
aI66943
aI66947
aI66949
aI66959
aI66973
aI66977
aI67003
aI67021
aI67033
aI67043
aI67049
aI67057
aI67061
aI67073
aI67079
aI67103
aI67121
aI67129
aI67139
aI67141
aI67153
aI67157
aI67169
aI67181
aI67187
aI67189
aI67211
aI67213
aI67217
aI67219
aI67231
aI67247
aI67261
aI67271
aI67273
aI67289
aI67307
aI67339
aI67343
aI67349
aI67369
aI67391
aI67399
aI67409
aI67411
aI67421
aI67427
aI67429
aI67433
aI67447
aI67453
aI67477
aI67481
aI67489
aI67493
aI67499
aI67511
aI67523
aI67531
aI67537
aI67547
aI67559
aI67567
aI67577
aI67579
aI67589
aI67601
aI67607
aI67619
aI67631
aI67651
aI67679
aI67699
aI67709
aI67723
aI67733
aI67741
aI67751
aI67757
aI67759
aI67763
aI67777
aI67783
aI67789
aI67801
aI67807
aI67819
aI67829
aI67843
aI67853
aI67867
aI67883
aI67891
aI67901
aI67927
aI67931
aI67933
aI67939
aI67943
aI67957
aI67961
aI67967
aI67979
aI67987
aI67993
aI68023
aI68041
aI68053
aI68059
aI68071
aI68087
aI68099
aI68111
aI68113
aI68141
aI68147
aI68161
aI68171
aI68207
aI68209
aI68213
aI68219
aI68227
aI68239
aI68261
aI68279
aI68281
aI68311
aI68329
aI68351
aI68371
aI68389
aI68399
aI68437
aI68443
aI68447
aI68449
aI68473
aI68477
aI68483
aI68489
aI68491
aI68501
aI68507
aI68521
aI68531
aI68539
aI68543
aI68567
aI68581
aI68597
aI68611
aI68633
aI68639
aI68659
aI68669
aI68683
aI68687
aI68699
aI68711
aI68713
aI68729
aI68737
aI68743
aI68749
aI68767
aI68771
aI68777
aI68791
aI68813
aI68819
aI68821
aI68863
aI68879
aI68881
aI68891
aI68897
aI68899
aI68903
aI68909
aI68917
aI68927
aI68947
aI68963
aI68993
aI69001
aI69011
aI69019
aI69029
aI69031
aI69061
aI69067
aI69073
aI69109
aI69119
aI69127
aI69143
aI69149
aI69151
aI69163
aI69191
aI69193
aI69197
aI69203
aI69221
aI69233
aI69239
aI69247
aI69257
aI69259
aI69263
aI69313
aI69317
aI69337
aI69341
aI69371
aI69379
aI69383
aI69389
aI69401
aI69403
aI69427
aI69431
aI69439
aI69457
aI69463
aI69467
aI69473
aI69481
aI69491
aI69493
aI69497
aI69499
aI69539
aI69557
aI69593
aI69623
aI69653
aI69661
aI69677
aI69691
aI69697
aI69709
aI69737
aI69739
aI69761
aI69763
aI69767
aI69779
aI69809
aI69821
aI69827
aI69829
aI69833
aI69847
aI69857
aI69859
aI69877
aI69899
aI69911
aI69929
aI69931
aI69941
aI69959
aI69991
aI69997
aI70001
aI70003
aI70009
aI70019
aI70039
aI70051
aI70061
aI70067
aI70079
aI70099
aI70111
aI70117
aI70121
aI70123
aI70139
aI70141
aI70157
aI70163
aI70177
aI70181
aI70183
aI70199
aI70201
aI70207
aI70223
aI70229
aI70237
aI70241
aI70249
aI70271
aI70289
aI70297
aI70309
aI70313
aI70321
aI70327
aI70351
aI70373
aI70379
aI70381
aI70393
aI70423
aI70429
aI70439
aI70451
aI70457
aI70459
aI70481
aI70487
aI70489
aI70501
aI70507
aI70529
aI70537
aI70549
aI70571
aI70573
aI70583
aI70589
aI70607
aI70619
aI70621
aI70627
aI70639
aI70657
aI70663
aI70667
aI70687
aI70709
aI70717
aI70729
aI70753
aI70769
aI70783
aI70793
aI70823
aI70841
aI70843
aI70849
aI70853
aI70867
aI70877
aI70879
aI70891
aI70901
aI70913
aI70919
aI70921
aI70937
aI70949
aI70951
aI70957
aI70969
aI70979
aI70981
aI70991
aI70997
aI70999
aI71011
aI71023
aI71039
aI71059
aI71069
aI71081
aI71089
aI71119
aI71129
aI71143
aI71147
aI71153
aI71161
aI71167
aI71171
aI71191
aI71209
aI71233
aI71237
aI71249
aI71257
aI71261
aI71263
aI71287
aI71293
aI71317
aI71327
aI71329
aI71333
aI71339
aI71341
aI71347
aI71353
aI71359
aI71363
aI71387
aI71389
aI71399
aI71411
aI71413
aI71419
aI71429
aI71437
aI71443
aI71453
aI71471
aI71473
aI71479
aI71483
aI71503
aI71527
aI71537
aI71549
aI71551
aI71563
aI71569
aI71593
aI71597
aI71633
aI71647
aI71663
aI71671
aI71693
aI71699
aI71707
aI71711
aI71713
aI71719
aI71741
aI71761
aI71777
aI71789
aI71807
aI71809
aI71821
aI71837
aI71843
aI71849
aI71861
aI71867
aI71879
aI71881
aI71887
aI71899
aI71909
aI71917
aI71933
aI71941
aI71947
aI71963
aI71971
aI71983
aI71987
aI71993
aI71999
aI72019
aI72031
aI72043
aI72047
aI72053
aI72073
aI72077
aI72089
aI72091
aI72101
aI72103
aI72109
aI72139
aI72161
aI72167
aI72169
aI72173
aI72211
aI72221
aI72223
aI72227
aI72229
aI72251
aI72253
aI72269
aI72271
aI72277
aI72287
aI72307
aI72313
aI72337
aI72341
aI72353
aI72367
aI72379
aI72383
aI72421
aI72431
aI72461
aI72467
aI72469
aI72481
aI72493
aI72497
aI72503
aI72533
aI72547
aI72551
aI72559
aI72577
aI72613
aI72617
aI72623
aI72643
aI72647
aI72649
aI72661
aI72671
aI72673
aI72679
aI72689
aI72701
aI72707
aI72719
aI72727
aI72733
aI72739
aI72763
aI72767
aI72797
aI72817
aI72823
aI72859
aI72869
aI72871
aI72883
aI72889
aI72893
aI72901
aI72907
aI72911
aI72923
aI72931
aI72937
aI72949
aI72953
aI72959
aI72973
aI72977
aI72997
aI73009
aI73013
aI73019
aI73037
aI73039
aI73043
aI73061
aI73063
aI73079
aI73091
aI73121
aI73127
aI73133
aI73141
aI73181
aI73189
aI73237
aI73243
aI73259
aI73277
aI73291
aI73303
aI73309
aI73327
aI73331
aI73351
aI73361
aI73363
aI73369
aI73379
aI73387
aI73417
aI73421
aI73433
aI73453
aI73459
aI73471
aI73477
aI73483
aI73517
aI73523
aI73529
aI73547
aI73553
aI73561
aI73571
aI73583
aI73589
aI73597
aI73607
aI73609
aI73613
aI73637
aI73643
aI73651
aI73673
aI73679
aI73681
aI73693
aI73699
aI73709
aI73721
aI73727
aI73751
aI73757
aI73771
aI73783
aI73819
aI73823
aI73847
aI73849
aI73859
aI73867
aI73877
aI73883
aI73897
aI73907
aI73939
aI73943
aI73951
aI73961
aI73973
aI73999
aI74017
aI74021
aI74027
aI74047
aI74051
aI74071
aI74077
aI74093
aI74099
aI74101
aI74131
aI74143
aI74149
aI74159
aI74161
aI74167
aI74177
aI74189
aI74197
aI74201
aI74203
aI74209
aI74219
aI74231
aI74257
aI74279
aI74287
aI74293
aI74297
aI74311
aI74317
aI74323
aI74353
aI74357
aI74363
aI74377
aI74381
aI74383
aI74411
aI74413
aI74419
aI74441
aI74449
aI74453
aI74471
aI74489
aI74507
aI74509
aI74521
aI74527
aI74531
aI74551
aI74561
aI74567
aI74573
aI74587
aI74597
aI74609
aI74611
aI74623
aI74653
aI74687
aI74699
aI74707
aI74713
aI74717
aI74719
aI74729
aI74731
aI74747
aI74759
aI74761
aI74771
aI74779
aI74797
aI74821
aI74827
aI74831
aI74843
aI74857
aI74861
aI74869
aI74873
aI74887
aI74891
aI74897
aI74903
aI74923
aI74929
aI74933
aI74941
aI74959
aI75011
aI75013
aI75017
aI75029
aI75037
aI75041
aI75079
aI75083
aI75109
aI75133
aI75149
aI75161
aI75167
aI75169
aI75181
aI75193
aI75209
aI75211
aI75217
aI75223
aI75227
aI75239
aI75253
aI75269
aI75277
aI75289
aI75307
aI75323
aI75329
aI75337
aI75347
aI75353
aI75367
aI75377
aI75389
aI75391
aI75401
aI75403
aI75407
aI75431
aI75437
aI75479
aI75503
aI75511
aI75521
aI75527
aI75533
aI75539
aI75541
aI75553
aI75557
aI75571
aI75577
aI75583
aI75611
aI75617
aI75619
aI75629
aI75641
aI75653
aI75659
aI75679
aI75683
aI75689
aI75703
aI75707
aI75709
aI75721
aI75731
aI75743
aI75767
aI75773
aI75781
aI75787
aI75793
aI75797
aI75821
aI75833
aI75853
aI75869
aI75883
aI75913
aI75931
aI75937
aI75941
aI75967
aI75979
aI75983
aI75989
aI75991
aI75997
aI76001
aI76003
aI76031
aI76039
aI76079
aI76081
aI76091
aI76099
aI76103
aI76123
aI76129
aI76147
aI76157
aI76159
aI76163
aI76207
aI76213
aI76231
aI76243
aI76249
aI76253
aI76259
aI76261
aI76283
aI76289
aI76303
aI76333
aI76343
aI76367
aI76369
aI76379
aI76387
aI76403
aI76421
aI76423
aI76441
aI76463
aI76471
aI76481
aI76487
aI76493
aI76507
aI76511
aI76519
aI76537
aI76541
aI76543
aI76561
aI76579
aI76597
aI76603
aI76607
aI76631
aI76649
aI76651
aI76667
aI76673
aI76679
aI76697
aI76717
aI76733
aI76753
aI76757
aI76771
aI76777
aI76781
aI76801
aI76819
aI76829
aI76831
aI76837
aI76847
aI76871
aI76873
aI76883
aI76907
aI76913
aI76919
aI76943
aI76949
aI76961
aI76963
aI76991
aI77003
aI77017
aI77023
aI77029
aI77041
aI77047
aI77069
aI77081
aI77093
aI77101
aI77137
aI77141
aI77153
aI77167
aI77171
aI77191
aI77201
aI77213
aI77237
aI77239
aI77243
aI77249
aI77261
aI77263
aI77267
aI77269
aI77279
aI77291
aI77317
aI77323
aI77339
aI77347
aI77351
aI77359
aI77369
aI77377
aI77383
aI77417
aI77419
aI77431
aI77447
aI77471
aI77477
aI77479
aI77489
aI77491
aI77509
aI77513
aI77521
aI77527
aI77543
aI77549
aI77551
aI77557
aI77563
aI77569
aI77573
aI77587
aI77591
aI77611
aI77617
aI77621
aI77641
aI77647
aI77659
aI77681
aI77687
aI77689
aI77699
aI77711
aI77713
aI77719
aI77723
aI77731
aI77743
aI77747
aI77761
aI77773
aI77783
aI77797
aI77801
aI77813
aI77839
aI77849
aI77863
aI77867
aI77893
aI77899
aI77929
aI77933
aI77951
aI77969
aI77977
aI77983
aI77999
aI78007
aI78017
aI78031
aI78041
aI78049
aI78059
aI78079
aI78101
aI78121
aI78137
aI78139
aI78157
aI78163
aI78167
aI78173
aI78179
aI78191
aI78193
aI78203
aI78229
aI78233
aI78241
aI78259
aI78277
aI78283
aI78301
aI78307
aI78311
aI78317
aI78341
aI78347
aI78367
aI78401
aI78427
aI78437
aI78439
aI78467
aI78479
aI78487
aI78497
aI78509
aI78511
aI78517
aI78539
aI78541
aI78553
aI78569
aI78571
aI78577
aI78583
aI78593
aI78607
aI78623
aI78643
aI78649
aI78653
aI78691
aI78697
aI78707
aI78713
aI78721
aI78737
aI78779
aI78781
aI78787
aI78791
aI78797
aI78803
aI78809
aI78823
aI78839
aI78853
aI78857
aI78877
aI78887
aI78889
aI78893
aI78901
aI78919
aI78929
aI78941
aI78977
aI78979
aI78989
aI79031
aI79039
aI79043
aI79063
aI79087
aI79103
aI79111
aI79133
aI79139
aI79147
aI79151
aI79153
aI79159
aI79181
aI79187
aI79193
aI79201
aI79229
aI79231
aI79241
aI79259
aI79273
aI79279
aI79283
aI79301
aI79309
aI79319
aI79333
aI79337
aI79349
aI79357
aI79367
aI79379
aI79393
aI79397
aI79399
aI79411
aI79423
aI79427
aI79433
aI79451
aI79481
aI79493
aI79531
aI79537
aI79549
aI79559
aI79561
aI79579
aI79589
aI79601
aI79609
aI79613
aI79621
aI79627
aI79631
aI79633
aI79657
aI79669
aI79687
aI79691
aI79693
aI79697
aI79699
aI79757
aI79769
aI79777
aI79801
aI79811
aI79813
aI79817
aI79823
aI79829
aI79841
aI79843
aI79847
aI79861
aI79867
aI79873
aI79889
aI79901
aI79903
aI79907
aI79939
aI79943
aI79967
aI79973
aI79979
aI79987
aI79997
aI79999
aI80021
aI80039
aI80051
aI80071
aI80077
aI80107
aI80111
aI80141
aI80147
aI80149
aI80153
aI80167
aI80173
aI80177
aI80191
aI80207
aI80209
aI80221
aI80231
aI80233
aI80239
aI80251
aI80263
aI80273
aI80279
aI80287
aI80309
aI80317
aI80329
aI80341
aI80347
aI80363
aI80369
aI80387
aI80407
aI80429
aI80447
aI80449
aI80471
aI80473
aI80489
aI80491
aI80513
aI80527
aI80537
aI80557
aI80567
aI80599
aI80603
aI80611
aI80621
aI80627
aI80629
aI80651
aI80657
aI80669
aI80671
aI80677
aI80681
aI80683
aI80687
aI80701
aI80713
aI80737
aI80747
aI80749
aI80761
aI80777
aI80779
aI80783
aI80789
aI80803
aI80809
aI80819
aI80831
aI80833
aI80849
aI80863
aI80897
aI80909
aI80911
aI80917
aI80923
aI80929
aI80933
aI80953
aI80963
aI80989
aI81001
aI81013
aI81017
aI81019
aI81023
aI81031
aI81041
aI81043
aI81047
aI81049
aI81071
aI81077
aI81083
aI81097
aI81101
aI81119
aI81131
aI81157
aI81163
aI81173
aI81181
aI81197
aI81199
aI81203
aI81223
aI81233
aI81239
aI81281
aI81283
aI81293
aI81299
aI81307
aI81331
aI81343
aI81349
aI81353
aI81359
aI81371
aI81373
aI81401
aI81409
aI81421
aI81439
aI81457
aI81463
aI81509
aI81517
aI81527
aI81533
aI81547
aI81551
aI81553
aI81559
aI81563
aI81569
aI81611
aI81619
aI81629
aI81637
aI81647
aI81649
aI81667
aI81671
aI81677
aI81689
aI81701
aI81703
aI81707
aI81727
aI81737
aI81749
aI81761
aI81769
aI81773
aI81799
aI81817
aI81839
aI81847
aI81853
aI81869
aI81883
aI81899
aI81901
aI81919
aI81929
aI81931
aI81937
aI81943
aI81953
aI81967
aI81971
aI81973
aI82003
aI82007
aI82009
aI82013
aI82021
aI82031
aI82037
aI82039
aI82051
aI82067
aI82073
aI82129
aI82139
aI82141
aI82153
aI82163
aI82171
aI82183
aI82189
aI82193
aI82207
aI82217
aI82219
aI82223
aI82231
aI82237
aI82241
aI82261
aI82267
aI82279
aI82301
aI82307
aI82339
aI82349
aI82351
aI82361
aI82373
aI82387
aI82393
aI82421
aI82457
aI82463
aI82469
aI82471
aI82483
aI82487
aI82493
aI82499
aI82507
aI82529
aI82531
aI82549
aI82559
aI82561
aI82567
aI82571
aI82591
aI82601
aI82609
aI82613
aI82619
aI82633
aI82651
aI82657
aI82699
aI82721
aI82723
aI82727
aI82729
aI82757
aI82759
aI82763
aI82781
aI82787
aI82793
aI82799
aI82811
aI82813
aI82837
aI82847
aI82883
aI82889
aI82891
aI82903
aI82913
aI82939
aI82963
aI82981
aI82997
aI83003
aI83009
aI83023
aI83047
aI83059
aI83063
aI83071
aI83077
aI83089
aI83093
aI83101
aI83117
aI83137
aI83177
aI83203
aI83207
aI83219
aI83221
aI83227
aI83231
aI83233
aI83243
aI83257
aI83267
aI83269
aI83273
aI83299
aI83311
aI83339
aI83341
aI83357
aI83383
aI83389
aI83399
aI83401
aI83407
aI83417
aI83423
aI83431
aI83437
aI83443
aI83449
aI83459
aI83471
aI83477
aI83497
aI83537
aI83557
aI83561
aI83563
aI83579
aI83591
aI83597
aI83609
aI83617
aI83621
aI83639
aI83641
aI83653
aI83663
aI83689
aI83701
aI83717
aI83719
aI83737
aI83761
aI83773
aI83777
aI83791
aI83813
aI83833
aI83843
aI83857
aI83869
aI83873
aI83891
aI83903
aI83911
aI83921
aI83933
aI83939
aI83969
aI83983
aI83987
aI84011
aI84017
aI84047
aI84053
aI84059
aI84061
aI84067
aI84089
aI84121
aI84127
aI84131
aI84137
aI84143
aI84163
aI84179
aI84181
aI84191
aI84199
aI84211
aI84221
aI84223
aI84229
aI84239
aI84247
aI84263
aI84299
aI84307
aI84313
aI84317
aI84319
aI84347
aI84349
aI84377
aI84389
aI84391
aI84401
aI84407
aI84421
aI84431
aI84437
aI84443
aI84449
aI84457
aI84463
aI84467
aI84481
aI84499
aI84503
aI84509
aI84521
aI84523
aI84533
aI84551
aI84559
aI84589
aI84629
aI84631
aI84649
aI84653
aI84659
aI84673
aI84691
aI84697
aI84701
aI84713
aI84719
aI84731
aI84737
aI84751
aI84761
aI84787
aI84793
aI84809
aI84811
aI84827
aI84857
aI84859
aI84869
aI84871
aI84913
aI84919
aI84947
aI84961
aI84967
aI84977
aI84979
aI84991
aI85009
aI85021
aI85027
aI85037
aI85049
aI85061
aI85081
aI85087
aI85091
aI85093
aI85103
aI85109
aI85121
aI85133
aI85147
aI85159
aI85193
aI85199
aI85201
aI85213
aI85223
aI85229
aI85237
aI85243
aI85247
aI85259
aI85297
aI85303
aI85313
aI85331
aI85333
aI85361
aI85363
aI85369
aI85381
aI85411
aI85427
aI85429
aI85439
aI85447
aI85451
aI85453
aI85469
aI85487
aI85513
aI85517
aI85523
aI85531
aI85549
aI85571
aI85577
aI85597
aI85601
aI85607
aI85619
aI85621
aI85627
aI85639
aI85643
aI85661
aI85667
aI85669
aI85691
aI85703
aI85711
aI85717
aI85733
aI85751
aI85781
aI85793
aI85817
aI85819
aI85829
aI85831
aI85837
aI85843
aI85847
aI85853
aI85889
aI85903
aI85909
aI85931
aI85933
aI85991
aI85999
aI86011
aI86017
aI86027
aI86029
aI86069
aI86077
aI86083
aI86111
aI86113
aI86117
aI86131
aI86137
aI86143
aI86161
aI86171
aI86179
aI86183
aI86197
aI86201
aI86209
aI86239
aI86243
aI86249
aI86257
aI86263
aI86269
aI86287
aI86291
aI86293
aI86297
aI86311
aI86323
aI86341
aI86351
aI86353
aI86357
aI86369
aI86371
aI86381
aI86389
aI86399
aI86413
aI86423
aI86441
aI86453
aI86461
aI86467
aI86477
aI86491
aI86501
aI86509
aI86531
aI86533
aI86539
aI86561
aI86573
aI86579
aI86587
aI86599
aI86627
aI86629
aI86677
aI86689
aI86693
aI86711
aI86719
aI86729
aI86743
aI86753
aI86767
aI86771
aI86783
aI86813
aI86837
aI86843
aI86851
aI86857
aI86861
aI86869
aI86923
aI86927
aI86929
aI86939
aI86951
aI86959
aI86969
aI86981
aI86993
aI87011
aI87013
aI87037
aI87041
aI87049
aI87071
aI87083
aI87103
aI87107
aI87119
aI87121
aI87133
aI87149
aI87151
aI87179
aI87181
aI87187
aI87211
aI87221
aI87223
aI87251
aI87253
aI87257
aI87277
aI87281
aI87293
aI87299
aI87313
aI87317
aI87323
aI87337
aI87359
aI87383
aI87403
aI87407
aI87421
aI87427
aI87433
aI87443
aI87473
aI87481
aI87491
aI87509
aI87511
aI87517
aI87523
aI87539
aI87541
aI87547
aI87553
aI87557
aI87559
aI87583
aI87587
aI87589
aI87613
aI87623
aI87629
aI87631
aI87641
aI87643
aI87649
aI87671
aI87679
aI87683
aI87691
aI87697
aI87701
aI87719
aI87721
aI87739
aI87743
aI87751
aI87767
aI87793
aI87797
aI87803
aI87811
aI87833
aI87853
aI87869
aI87877
aI87881
aI87887
aI87911
aI87917
aI87931
aI87943
aI87959
aI87961
aI87973
aI87977
aI87991
aI88001
aI88003
aI88007
aI88019
aI88037
aI88069
aI88079
aI88093
aI88117
aI88129
aI88169
aI88177
aI88211
aI88223
aI88237
aI88241
aI88259
aI88261
aI88289
aI88301
aI88321
aI88327
aI88337
aI88339
aI88379
aI88397
aI88411
aI88423
aI88427
aI88463
aI88469
aI88471
aI88493
aI88499
aI88513
aI88523
aI88547
aI88589
aI88591
aI88607
aI88609
aI88643
aI88651
aI88657
aI88661
aI88663
aI88667
aI88681
aI88721
aI88729
aI88741
aI88747
aI88771
aI88789
aI88793
aI88799
aI88801
aI88807
aI88811
aI88813
aI88817
aI88819
aI88843
aI88853
aI88861
aI88867
aI88873
aI88883
aI88897
aI88903
aI88919
aI88937
aI88951
aI88969
aI88993
aI88997
aI89003
aI89009
aI89017
aI89021
aI89041
aI89051
aI89057
aI89069
aI89071
aI89083
aI89087
aI89101
aI89107
aI89113
aI89119
aI89123
aI89137
aI89153
aI89189
aI89203
aI89209
aI89213
aI89227
aI89231
aI89237
aI89261
aI89269
aI89273
aI89293
aI89303
aI89317
aI89329
aI89363
aI89371
aI89381
aI89387
aI89393
aI89399
aI89413
aI89417
aI89431
aI89443
aI89449
aI89459
aI89477
aI89491
aI89501
aI89513
aI89519
aI89521
aI89527
aI89533
aI89561
aI89563
aI89567
aI89591
aI89597
aI89599
aI89603
aI89611
aI89627
aI89633
aI89653
aI89657
aI89659
aI89669
aI89671
aI89681
aI89689
aI89753
aI89759
aI89767
aI89779
aI89783
aI89797
aI89809
aI89819
aI89821
aI89833
aI89839
aI89849
aI89867
aI89891
aI89897
aI89899
aI89909
aI89917
aI89923
aI89939
aI89959
aI89963
aI89977
aI89983
aI89989
aI90001
aI90007
aI90011
aI90017
aI90019
aI90023
aI90031
aI90053
aI90059
aI90067
aI90071
aI90073
aI90089
aI90107
aI90121
aI90127
aI90149
aI90163
aI90173
aI90187
aI90191
aI90197
aI90199
aI90203
aI90217
aI90227
aI90239
aI90247
aI90263
aI90271
aI90281
aI90289
aI90313
aI90353
aI90359
aI90371
aI90373
aI90379
aI90397
aI90401
aI90403
aI90407
aI90437
aI90439
aI90469
aI90473
aI90481
aI90499
aI90511
aI90523
aI90527
aI90529
aI90533
aI90547
aI90583
aI90599
aI90617
aI90619
aI90631
aI90641
aI90647
aI90659
aI90677
aI90679
aI90697
aI90703
aI90709
aI90731
aI90749
aI90787
aI90793
aI90803
aI90821
aI90823
aI90833
aI90841
aI90847
aI90863
aI90887
aI90901
aI90907
aI90911
aI90917
aI90931
aI90947
aI90971
aI90977
aI90989
aI90997
aI91009
aI91019
aI91033
aI91079
aI91081
aI91097
aI91099
aI91121
aI91127
aI91129
aI91139
aI91141
aI91151
aI91153
aI91159
aI91163
aI91183
aI91193
aI91199
aI91229
aI91237
aI91243
aI91249
aI91253
aI91283
aI91291
aI91297
aI91303
aI91309
aI91331
aI91367
aI91369
aI91373
aI91381
aI91387
aI91393
aI91397
aI91411
aI91423
aI91433
aI91453
aI91457
aI91459
aI91463
aI91493
aI91499
aI91513
aI91529
aI91541
aI91571
aI91573
aI91577
aI91583
aI91591
aI91621
aI91631
aI91639
aI91673
aI91691
aI91703
aI91711
aI91733
aI91753
aI91757
aI91771
aI91781
aI91801
aI91807
aI91811
aI91813
aI91823
aI91837
aI91841
aI91867
aI91873
aI91909
aI91921
aI91939
aI91943
aI91951
aI91957
aI91961
aI91967
aI91969
aI91997
aI92003
aI92009
aI92033
aI92041
aI92051
aI92077
aI92083
aI92107
aI92111
aI92119
aI92143
aI92153
aI92173
aI92177
aI92179
aI92189
aI92203
aI92219
aI92221
aI92227
aI92233
aI92237
aI92243
aI92251
aI92269
aI92297
aI92311
aI92317
aI92333
aI92347
aI92353
aI92357
aI92363
aI92369
aI92377
aI92381
aI92383
aI92387
aI92399
aI92401
aI92413
aI92419
aI92431
aI92459
aI92461
aI92467
aI92479
aI92489
aI92503
aI92507
aI92551
aI92557
aI92567
aI92569
aI92581
aI92593
aI92623
aI92627
aI92639
aI92641
aI92647
aI92657
aI92669
aI92671
aI92681
aI92683
aI92693
aI92699
aI92707
aI92717
aI92723
aI92737
aI92753
aI92761
aI92767
aI92779
aI92789
aI92791
aI92801
aI92809
aI92821
aI92831
aI92849
aI92857
aI92861
aI92863
aI92867
aI92893
aI92899
aI92921
aI92927
aI92941
aI92951
aI92957
aI92959
aI92987
aI92993
aI93001
aI93047
aI93053
aI93059
aI93077
aI93083
aI93089
aI93097
aI93103
aI93113
aI93131
aI93133
aI93139
aI93151
aI93169
aI93179
aI93187
aI93199
aI93229
aI93239
aI93241
aI93251
aI93253
aI93257
aI93263
aI93281
aI93283
aI93287
aI93307
aI93319
aI93323
aI93329
aI93337
aI93371
aI93377
aI93383
aI93407
aI93419
aI93427
aI93463
aI93479
aI93481
aI93487
aI93491
aI93493
aI93497
aI93503
aI93523
aI93529
aI93553
aI93557
aI93559
aI93563
aI93581
aI93601
aI93607
aI93629
aI93637
aI93683
aI93701
aI93703
aI93719
aI93739
aI93761
aI93763
aI93787
aI93809
aI93811
aI93827
aI93851
aI93871
aI93887
aI93889
aI93893
aI93901
aI93911
aI93913
aI93923
aI93937
aI93941
aI93949
aI93967
aI93971
aI93979
aI93983
aI93997
aI94007
aI94009
aI94033
aI94049
aI94057
aI94063
aI94079
aI94099
aI94109
aI94111
aI94117
aI94121
aI94151
aI94153
aI94169
aI94201
aI94207
aI94219
aI94229
aI94253
aI94261
aI94273
aI94291
aI94307
aI94309
aI94321
aI94327
aI94331
aI94343
aI94349
aI94351
aI94379
aI94397
aI94399
aI94421
aI94427
aI94433
aI94439
aI94441
aI94447
aI94463
aI94477
aI94483
aI94513
aI94529
aI94531
aI94541
aI94543
aI94547
aI94559
aI94561
aI94573
aI94583
aI94597
aI94603
aI94613
aI94621
aI94649
aI94651
aI94687
aI94693
aI94709
aI94723
aI94727
aI94747
aI94771
aI94777
aI94781
aI94789
aI94793
aI94811
aI94819
aI94823
aI94837
aI94841
aI94847
aI94849
aI94873
aI94889
aI94903
aI94907
aI94933
aI94949
aI94951
aI94961
aI94993
aI94999
aI95003
aI95009
aI95021
aI95027
aI95063
aI95071
aI95083
aI95087
aI95089
aI95093
aI95101
aI95107
aI95111
aI95131
aI95143
aI95153
aI95177
aI95189
aI95191
aI95203
aI95213
aI95219
aI95231
aI95233
aI95239
aI95257
aI95261
aI95267
aI95273
aI95279
aI95287
aI95311
aI95317
aI95327
aI95339
aI95369
aI95383
aI95393
aI95401
aI95413
aI95419
aI95429
aI95441
aI95443
aI95461
aI95467
aI95471
aI95479
aI95483
aI95507
aI95527
aI95531
aI95539
aI95549
aI95561
aI95569
aI95581
aI95597
aI95603
aI95617
aI95621
aI95629
aI95633
aI95651
aI95701
aI95707
aI95713
aI95717
aI95723
aI95731
aI95737
aI95747
aI95773
aI95783
aI95789
aI95791
aI95801
aI95803
aI95813
aI95819
aI95857
aI95869
aI95873
aI95881
aI95891
aI95911
aI95917
aI95923
aI95929
aI95947
aI95957
aI95959
aI95971
aI95987
aI95989
aI96001
aI96013
aI96017
aI96043
aI96053
aI96059
aI96079
aI96097
aI96137
aI96149
aI96157
aI96167
aI96179
aI96181
aI96199
aI96211
aI96221
aI96223
aI96233
aI96259
aI96263
aI96269
aI96281
aI96289
aI96293
aI96323
aI96329
aI96331
aI96337
aI96353
aI96377
aI96401
aI96419
aI96431
aI96443
aI96451
aI96457
aI96461
aI96469
aI96479
aI96487
aI96493
aI96497
aI96517
aI96527
aI96553
aI96557
aI96581
aI96587
aI96589
aI96601
aI96643
aI96661
aI96667
aI96671
aI96697
aI96703
aI96731
aI96737
aI96739
aI96749
aI96757
aI96763
aI96769
aI96779
aI96787
aI96797
aI96799
aI96821
aI96823
aI96827
aI96847
aI96851
aI96857
aI96893
aI96907
aI96911
aI96931
aI96953
aI96959
aI96973
aI96979
aI96989
aI96997
aI97001
aI97003
aI97007
aI97021
aI97039
aI97073
aI97081
aI97103
aI97117
aI97127
aI97151
aI97157
aI97159
aI97169
aI97171
aI97177
aI97187
aI97213
aI97231
aI97241
aI97259
aI97283
aI97301
aI97303
aI97327
aI97367
aI97369
aI97373
aI97379
aI97381
aI97387
aI97397
aI97423
aI97429
aI97441
aI97453
aI97459
aI97463
aI97499
aI97501
aI97511
aI97523
aI97547
aI97549
aI97553
aI97561
aI97571
aI97577
aI97579
aI97583
aI97607
aI97609
aI97613
aI97649
aI97651
aI97673
aI97687
aI97711
aI97729
aI97771
aI97777
aI97787
aI97789
aI97813
aI97829
aI97841
aI97843
aI97847
aI97849
aI97859
aI97861
aI97871
aI97879
aI97883
aI97919
aI97927
aI97931
aI97943
aI97961
aI97967
aI97973
aI97987
aI98009
aI98011
aI98017
aI98041
aI98047
aI98057
aI98081
aI98101
aI98123
aI98129
aI98143
aI98179
aI98207
aI98213
aI98221
aI98227
aI98251
aI98257
aI98269
aI98297
aI98299
aI98317
aI98321
aI98323
aI98327
aI98347
aI98369
aI98377
aI98387
aI98389
aI98407
aI98411
aI98419
aI98429
aI98443
aI98453
aI98459
aI98467
aI98473
aI98479
aI98491
aI98507
aI98519
aI98533
aI98543
aI98561
aI98563
aI98573
aI98597
aI98621
aI98627
aI98639
aI98641
aI98663
aI98669
aI98689
aI98711
aI98713
aI98717
aI98729
aI98731
aI98737
aI98773
aI98779
aI98801
aI98807
aI98809
aI98837
aI98849
aI98867
aI98869
aI98873
aI98887
aI98893
aI98897
aI98899
aI98909
aI98911
aI98927
aI98929
aI98939
aI98947
aI98953
aI98963
aI98981
aI98993
aI98999
aI99013
aI99017
aI99023
aI99041
aI99053
aI99079
aI99083
aI99089
aI99103
aI99109
aI99119
aI99131
aI99133
aI99137
aI99139
aI99149
aI99173
aI99181
aI99191
aI99223
aI99233
aI99241
aI99251
aI99257
aI99259
aI99277
aI99289
aI99317
aI99347
aI99349
aI99367
aI99371
aI99377
aI99391
aI99397
aI99401
aI99409
aI99431
aI99439
aI99469
aI99487
aI99497
aI99523
aI99527
aI99529
aI99551
aI99559
aI99563
aI99571
aI99577
aI99581
aI99607
aI99611
aI99623
aI99643
aI99661
aI99667
aI99679
aI99689
aI99707
aI99709
aI99713
aI99719
aI99721
aI99733
aI99761
aI99767
aI99787
aI99793
aI99809
aI99817
aI99823
aI99829
aI99833
aI99839
aI99859
aI99871
aI99877
aI99881
aI99901
aI99907
aI99923
aI99929
aI99961
aI99971
aI99989
aI99991
a.